
aos.elf:     file format elf64-littleaarch64


Disassembly of section .init.head:

0000000044000000 <_start0>:
    44000000:	aa1f03e0 	mov	x0, xzr
    44000004:	580006a1 	ldr	x1, 440000d8 <halt+0x4>
    44000008:	580006c3 	ldr	x3, 440000e0 <halt+0xc>
    4400000c:	cb030021 	sub	x1, x1, x3
    44000010:	d5033fdf 	isb
    44000014:	f8408402 	ldr	x2, [x0], #8
    44000018:	f8008462 	str	x2, [x3], #8
    4400001c:	eb01001f 	cmp	x0, x1
    44000020:	54ffffa3 	b.cc	44000014 <_start0+0x14>  // b.lo, b.ul, b.last
    44000024:	58000620 	ldr	x0, 440000e8 <halt+0x14>
    44000028:	d61f0000 	br	x0

000000004400002c <_start>:
    4400002c:	d5384254 	mrs	x20, currentel
    44000030:	d342fe94 	lsr	x20, x20, #2
    44000034:	f1000a9f 	cmp	x20, #0x2
    44000038:	54000080 	b.eq	44000048 <_el2_entry>  // b.none
    4400003c:	f100069f 	cmp	x20, #0x1
    44000040:	54000280 	b.eq	44000090 <_el1_entry>  // b.none
    44000044:	14000024 	b	440000d4 <halt>

0000000044000048 <_el2_entry>:
    44000048:	58000542 	ldr	x2, 440000f0 <halt+0x1c>
    4400004c:	d51c1142 	msr	cptr_el2, x2
    44000050:	d51c117f 	msr	hstr_el2, xzr
    44000054:	d53ce102 	mrs	x2, cnthctl_el2
    44000058:	b2400442 	orr	x2, x2, #0x3
    4400005c:	d51ce102 	msr	cnthctl_el2, x2
    44000060:	d51ce07f 	msr	cntvoff_el2, xzr
    44000064:	d518101f 	msr	sctlr_el1, xzr
    44000068:	d53c1100 	mrs	x0, hcr_el2
    4400006c:	b2610000 	orr	x0, x0, #0x80000000
    44000070:	d51c1100 	msr	hcr_el2, x0
    44000074:	d28078a0 	mov	x0, #0x3c5                 	// #965
    44000078:	d51c4000 	msr	spsr_el2, x0
    4400007c:	90000000 	adrp	x0, 44000000 <_start0>
    44000080:	9100b000 	add	x0, x0, #0x2c
    44000084:	d51c4020 	msr	elr_el2, x0
    44000088:	d5033fdf 	isb
    4400008c:	d69f03e0 	eret

0000000044000090 <_el1_entry>:
    44000090:	5800034f 	ldr	x15, 440000f8 <halt+0x24>
    44000094:	5800036e 	ldr	x14, 44000100 <halt+0x2c>
    44000098:	f80085ff 	str	xzr, [x15], #8
    4400009c:	eb0e01ff 	cmp	x15, x14
    440000a0:	54ffffc3 	b.cc	44000098 <_el1_entry+0x8>  // b.lo, b.ul, b.last
    440000a4:	f0000140 	adrp	x0, 4402b000 <__bss_end__+0x9430>
    440000a8:	912f4000 	add	x0, x0, #0xbd0
    440000ac:	9100001f 	mov	sp, x0
    440000b0:	900000e0 	adrp	x0, 4401c000 <__GNU_EH_FRAME_HDR+0x238>
    440000b4:	913e9000 	add	x0, x0, #0xfa4
    440000b8:	f9400000 	ldr	x0, [x0]
    440000bc:	92407c00 	and	x0, x0, #0xffffffff
    440000c0:	cb2063ff 	sub	sp, sp, x0
    440000c4:	90000000 	adrp	x0, 44000000 <_start0>
    440000c8:	91200000 	add	x0, x0, #0x800
    440000cc:	d518c000 	msr	vbar_el1, x0
    440000d0:	140006ec 	b	44001c80 <lostart>

00000000440000d4 <halt>:
    440000d4:	14000000 	b	440000d4 <halt>
    440000d8:	4402bc00 	.word	0x4402bc00
    440000dc:	00000000 	.word	0x00000000
    440000e0:	44000000 	.word	0x44000000
    440000e4:	00000000 	.word	0x00000000
    440000e8:	4400002c 	.word	0x4400002c
    440000ec:	00000000 	.word	0x00000000
    440000f0:	000033ff 	.word	0x000033ff
    440000f4:	00000000 	.word	0x00000000
    440000f8:	4401cfc0 	.word	0x4401cfc0
    440000fc:	00000000 	.word	0x00000000
    44000100:	44021bd0 	.word	0x44021bd0
	...

0000000044000800 <el1_vectors>:
    44000800:	d10403ff 	sub	sp, sp, #0x100
    44000804:	a90007e0 	stp	x0, x1, [sp]
    44000808:	a9010fe2 	stp	x2, x3, [sp, #16]
    4400080c:	a90217e4 	stp	x4, x5, [sp, #32]
    44000810:	a9031fe6 	stp	x6, x7, [sp, #48]
    44000814:	a90427e8 	stp	x8, x9, [sp, #64]
    44000818:	a9052fea 	stp	x10, x11, [sp, #80]
    4400081c:	a90637ec 	stp	x12, x13, [sp, #96]
    44000820:	a9073fee 	stp	x14, x15, [sp, #112]
    44000824:	a90847f0 	stp	x16, x17, [sp, #128]
    44000828:	a9094ff2 	stp	x18, x19, [sp, #144]
    4400082c:	a90a57f4 	stp	x20, x21, [sp, #160]
    44000830:	a90b5ff6 	stp	x22, x23, [sp, #176]
    44000834:	a90c67f8 	stp	x24, x25, [sp, #192]
    44000838:	a90d6ffa 	stp	x26, x27, [sp, #208]
    4400083c:	a90e77fc 	stp	x28, x29, [sp, #224]
    44000840:	d538402a 	mrs	x10, elr_el1
    44000844:	d538400b 	mrs	x11, spsr_el1
    44000848:	d538520c 	mrs	x12, esr_el1
    4400084c:	a90f2fea 	stp	x10, x11, [sp, #240]
    44000850:	a9107bec 	stp	x12, x30, [sp, #256]
    44000854:	940003ee 	bl	4400180c <el1t_64_sync>
    44000858:	a94f2fea 	ldp	x10, x11, [sp, #240]
    4400085c:	a9507bec 	ldp	x12, x30, [sp, #256]
    44000860:	d518402a 	msr	elr_el1, x10
    44000864:	d518400b 	msr	spsr_el1, x11
    44000868:	d518520c 	msr	esr_el1, x12
    4400086c:	a94007e0 	ldp	x0, x1, [sp]
    44000870:	a9410fe2 	ldp	x2, x3, [sp, #16]
    44000874:	a94217e4 	ldp	x4, x5, [sp, #32]
    44000878:	a9431fe6 	ldp	x6, x7, [sp, #48]
    4400087c:	a94427e8 	ldp	x8, x9, [sp, #64]
    44000880:	a9452fea 	ldp	x10, x11, [sp, #80]
    44000884:	a94637ec 	ldp	x12, x13, [sp, #96]
    44000888:	a9473fee 	ldp	x14, x15, [sp, #112]
    4400088c:	a94847f0 	ldp	x16, x17, [sp, #128]
    44000890:	a9494ff2 	ldp	x18, x19, [sp, #144]
    44000894:	a94a57f4 	ldp	x20, x21, [sp, #160]
    44000898:	a94b5ff6 	ldp	x22, x23, [sp, #176]
    4400089c:	a94c67f8 	ldp	x24, x25, [sp, #192]
    440008a0:	a94d6ffa 	ldp	x26, x27, [sp, #208]
    440008a4:	a94e77fc 	ldp	x28, x29, [sp, #224]
    440008a8:	910403ff 	add	sp, sp, #0x100
    440008ac:	d69f03e0 	eret
    440008b0:	d503201f 	nop
    440008b4:	d503201f 	nop
    440008b8:	d503201f 	nop
    440008bc:	d503201f 	nop
    440008c0:	d503201f 	nop
    440008c4:	d503201f 	nop
    440008c8:	d503201f 	nop
    440008cc:	d503201f 	nop
    440008d0:	d503201f 	nop
    440008d4:	d503201f 	nop
    440008d8:	d503201f 	nop
    440008dc:	d503201f 	nop
    440008e0:	d503201f 	nop
    440008e4:	d503201f 	nop
    440008e8:	d503201f 	nop
    440008ec:	d503201f 	nop
    440008f0:	d503201f 	nop
    440008f4:	d503201f 	nop
    440008f8:	d503201f 	nop
    440008fc:	d503201f 	nop

0000000044000900 <entry_start_3>:
    44000900:	d10403ff 	sub	sp, sp, #0x100
    44000904:	a90007e0 	stp	x0, x1, [sp]
    44000908:	a9010fe2 	stp	x2, x3, [sp, #16]
    4400090c:	a90217e4 	stp	x4, x5, [sp, #32]
    44000910:	a9031fe6 	stp	x6, x7, [sp, #48]
    44000914:	a90427e8 	stp	x8, x9, [sp, #64]
    44000918:	a9052fea 	stp	x10, x11, [sp, #80]
    4400091c:	a90637ec 	stp	x12, x13, [sp, #96]
    44000920:	a9073fee 	stp	x14, x15, [sp, #112]
    44000924:	a90847f0 	stp	x16, x17, [sp, #128]
    44000928:	a9094ff2 	stp	x18, x19, [sp, #144]
    4400092c:	a90a57f4 	stp	x20, x21, [sp, #160]
    44000930:	a90b5ff6 	stp	x22, x23, [sp, #176]
    44000934:	a90c67f8 	stp	x24, x25, [sp, #192]
    44000938:	a90d6ffa 	stp	x26, x27, [sp, #208]
    4400093c:	a90e77fc 	stp	x28, x29, [sp, #224]
    44000940:	d538402a 	mrs	x10, elr_el1
    44000944:	d538400b 	mrs	x11, spsr_el1
    44000948:	d538520c 	mrs	x12, esr_el1
    4400094c:	a90f2fea 	stp	x10, x11, [sp, #240]
    44000950:	a9107bec 	stp	x12, x30, [sp, #256]
    44000954:	940003b0 	bl	44001814 <el1t_64_irq>
    44000958:	a94f2fea 	ldp	x10, x11, [sp, #240]
    4400095c:	a9507bec 	ldp	x12, x30, [sp, #256]
    44000960:	d518402a 	msr	elr_el1, x10
    44000964:	d518400b 	msr	spsr_el1, x11
    44000968:	d518520c 	msr	esr_el1, x12
    4400096c:	a94007e0 	ldp	x0, x1, [sp]
    44000970:	a9410fe2 	ldp	x2, x3, [sp, #16]
    44000974:	a94217e4 	ldp	x4, x5, [sp, #32]
    44000978:	a9431fe6 	ldp	x6, x7, [sp, #48]
    4400097c:	a94427e8 	ldp	x8, x9, [sp, #64]
    44000980:	a9452fea 	ldp	x10, x11, [sp, #80]
    44000984:	a94637ec 	ldp	x12, x13, [sp, #96]
    44000988:	a9473fee 	ldp	x14, x15, [sp, #112]
    4400098c:	a94847f0 	ldp	x16, x17, [sp, #128]
    44000990:	a9494ff2 	ldp	x18, x19, [sp, #144]
    44000994:	a94a57f4 	ldp	x20, x21, [sp, #160]
    44000998:	a94b5ff6 	ldp	x22, x23, [sp, #176]
    4400099c:	a94c67f8 	ldp	x24, x25, [sp, #192]
    440009a0:	a94d6ffa 	ldp	x26, x27, [sp, #208]
    440009a4:	a94e77fc 	ldp	x28, x29, [sp, #224]
    440009a8:	910403ff 	add	sp, sp, #0x100
    440009ac:	d69f03e0 	eret
    440009b0:	d503201f 	nop
    440009b4:	d503201f 	nop
    440009b8:	d503201f 	nop
    440009bc:	d503201f 	nop
    440009c0:	d503201f 	nop
    440009c4:	d503201f 	nop
    440009c8:	d503201f 	nop
    440009cc:	d503201f 	nop
    440009d0:	d503201f 	nop
    440009d4:	d503201f 	nop
    440009d8:	d503201f 	nop
    440009dc:	d503201f 	nop
    440009e0:	d503201f 	nop
    440009e4:	d503201f 	nop
    440009e8:	d503201f 	nop
    440009ec:	d503201f 	nop
    440009f0:	d503201f 	nop
    440009f4:	d503201f 	nop
    440009f8:	d503201f 	nop
    440009fc:	d503201f 	nop

0000000044000a00 <entry_start_6>:
    44000a00:	d10403ff 	sub	sp, sp, #0x100
    44000a04:	a90007e0 	stp	x0, x1, [sp]
    44000a08:	a9010fe2 	stp	x2, x3, [sp, #16]
    44000a0c:	a90217e4 	stp	x4, x5, [sp, #32]
    44000a10:	a9031fe6 	stp	x6, x7, [sp, #48]
    44000a14:	a90427e8 	stp	x8, x9, [sp, #64]
    44000a18:	a9052fea 	stp	x10, x11, [sp, #80]
    44000a1c:	a90637ec 	stp	x12, x13, [sp, #96]
    44000a20:	a9073fee 	stp	x14, x15, [sp, #112]
    44000a24:	a90847f0 	stp	x16, x17, [sp, #128]
    44000a28:	a9094ff2 	stp	x18, x19, [sp, #144]
    44000a2c:	a90a57f4 	stp	x20, x21, [sp, #160]
    44000a30:	a90b5ff6 	stp	x22, x23, [sp, #176]
    44000a34:	a90c67f8 	stp	x24, x25, [sp, #192]
    44000a38:	a90d6ffa 	stp	x26, x27, [sp, #208]
    44000a3c:	a90e77fc 	stp	x28, x29, [sp, #224]
    44000a40:	d538402a 	mrs	x10, elr_el1
    44000a44:	d538400b 	mrs	x11, spsr_el1
    44000a48:	d538520c 	mrs	x12, esr_el1
    44000a4c:	a90f2fea 	stp	x10, x11, [sp, #240]
    44000a50:	a9107bec 	stp	x12, x30, [sp, #256]
    44000a54:	94000372 	bl	4400181c <el1t_64_fiq>
    44000a58:	a94f2fea 	ldp	x10, x11, [sp, #240]
    44000a5c:	a9507bec 	ldp	x12, x30, [sp, #256]
    44000a60:	d518402a 	msr	elr_el1, x10
    44000a64:	d518400b 	msr	spsr_el1, x11
    44000a68:	d518520c 	msr	esr_el1, x12
    44000a6c:	a94007e0 	ldp	x0, x1, [sp]
    44000a70:	a9410fe2 	ldp	x2, x3, [sp, #16]
    44000a74:	a94217e4 	ldp	x4, x5, [sp, #32]
    44000a78:	a9431fe6 	ldp	x6, x7, [sp, #48]
    44000a7c:	a94427e8 	ldp	x8, x9, [sp, #64]
    44000a80:	a9452fea 	ldp	x10, x11, [sp, #80]
    44000a84:	a94637ec 	ldp	x12, x13, [sp, #96]
    44000a88:	a9473fee 	ldp	x14, x15, [sp, #112]
    44000a8c:	a94847f0 	ldp	x16, x17, [sp, #128]
    44000a90:	a9494ff2 	ldp	x18, x19, [sp, #144]
    44000a94:	a94a57f4 	ldp	x20, x21, [sp, #160]
    44000a98:	a94b5ff6 	ldp	x22, x23, [sp, #176]
    44000a9c:	a94c67f8 	ldp	x24, x25, [sp, #192]
    44000aa0:	a94d6ffa 	ldp	x26, x27, [sp, #208]
    44000aa4:	a94e77fc 	ldp	x28, x29, [sp, #224]
    44000aa8:	910403ff 	add	sp, sp, #0x100
    44000aac:	d69f03e0 	eret
    44000ab0:	d503201f 	nop
    44000ab4:	d503201f 	nop
    44000ab8:	d503201f 	nop
    44000abc:	d503201f 	nop
    44000ac0:	d503201f 	nop
    44000ac4:	d503201f 	nop
    44000ac8:	d503201f 	nop
    44000acc:	d503201f 	nop
    44000ad0:	d503201f 	nop
    44000ad4:	d503201f 	nop
    44000ad8:	d503201f 	nop
    44000adc:	d503201f 	nop
    44000ae0:	d503201f 	nop
    44000ae4:	d503201f 	nop
    44000ae8:	d503201f 	nop
    44000aec:	d503201f 	nop
    44000af0:	d503201f 	nop
    44000af4:	d503201f 	nop
    44000af8:	d503201f 	nop
    44000afc:	d503201f 	nop

0000000044000b00 <entry_start_9>:
    44000b00:	d10403ff 	sub	sp, sp, #0x100
    44000b04:	a90007e0 	stp	x0, x1, [sp]
    44000b08:	a9010fe2 	stp	x2, x3, [sp, #16]
    44000b0c:	a90217e4 	stp	x4, x5, [sp, #32]
    44000b10:	a9031fe6 	stp	x6, x7, [sp, #48]
    44000b14:	a90427e8 	stp	x8, x9, [sp, #64]
    44000b18:	a9052fea 	stp	x10, x11, [sp, #80]
    44000b1c:	a90637ec 	stp	x12, x13, [sp, #96]
    44000b20:	a9073fee 	stp	x14, x15, [sp, #112]
    44000b24:	a90847f0 	stp	x16, x17, [sp, #128]
    44000b28:	a9094ff2 	stp	x18, x19, [sp, #144]
    44000b2c:	a90a57f4 	stp	x20, x21, [sp, #160]
    44000b30:	a90b5ff6 	stp	x22, x23, [sp, #176]
    44000b34:	a90c67f8 	stp	x24, x25, [sp, #192]
    44000b38:	a90d6ffa 	stp	x26, x27, [sp, #208]
    44000b3c:	a90e77fc 	stp	x28, x29, [sp, #224]
    44000b40:	d538402a 	mrs	x10, elr_el1
    44000b44:	d538400b 	mrs	x11, spsr_el1
    44000b48:	d538520c 	mrs	x12, esr_el1
    44000b4c:	a90f2fea 	stp	x10, x11, [sp, #240]
    44000b50:	a9107bec 	stp	x12, x30, [sp, #256]
    44000b54:	94000334 	bl	44001824 <el1t_64_error>
    44000b58:	a94f2fea 	ldp	x10, x11, [sp, #240]
    44000b5c:	a9507bec 	ldp	x12, x30, [sp, #256]
    44000b60:	d518402a 	msr	elr_el1, x10
    44000b64:	d518400b 	msr	spsr_el1, x11
    44000b68:	d518520c 	msr	esr_el1, x12
    44000b6c:	a94007e0 	ldp	x0, x1, [sp]
    44000b70:	a9410fe2 	ldp	x2, x3, [sp, #16]
    44000b74:	a94217e4 	ldp	x4, x5, [sp, #32]
    44000b78:	a9431fe6 	ldp	x6, x7, [sp, #48]
    44000b7c:	a94427e8 	ldp	x8, x9, [sp, #64]
    44000b80:	a9452fea 	ldp	x10, x11, [sp, #80]
    44000b84:	a94637ec 	ldp	x12, x13, [sp, #96]
    44000b88:	a9473fee 	ldp	x14, x15, [sp, #112]
    44000b8c:	a94847f0 	ldp	x16, x17, [sp, #128]
    44000b90:	a9494ff2 	ldp	x18, x19, [sp, #144]
    44000b94:	a94a57f4 	ldp	x20, x21, [sp, #160]
    44000b98:	a94b5ff6 	ldp	x22, x23, [sp, #176]
    44000b9c:	a94c67f8 	ldp	x24, x25, [sp, #192]
    44000ba0:	a94d6ffa 	ldp	x26, x27, [sp, #208]
    44000ba4:	a94e77fc 	ldp	x28, x29, [sp, #224]
    44000ba8:	910403ff 	add	sp, sp, #0x100
    44000bac:	d69f03e0 	eret
    44000bb0:	d503201f 	nop
    44000bb4:	d503201f 	nop
    44000bb8:	d503201f 	nop
    44000bbc:	d503201f 	nop
    44000bc0:	d503201f 	nop
    44000bc4:	d503201f 	nop
    44000bc8:	d503201f 	nop
    44000bcc:	d503201f 	nop
    44000bd0:	d503201f 	nop
    44000bd4:	d503201f 	nop
    44000bd8:	d503201f 	nop
    44000bdc:	d503201f 	nop
    44000be0:	d503201f 	nop
    44000be4:	d503201f 	nop
    44000be8:	d503201f 	nop
    44000bec:	d503201f 	nop
    44000bf0:	d503201f 	nop
    44000bf4:	d503201f 	nop
    44000bf8:	d503201f 	nop
    44000bfc:	d503201f 	nop

0000000044000c00 <entry_start_12>:
    44000c00:	d10403ff 	sub	sp, sp, #0x100
    44000c04:	a90007e0 	stp	x0, x1, [sp]
    44000c08:	a9010fe2 	stp	x2, x3, [sp, #16]
    44000c0c:	a90217e4 	stp	x4, x5, [sp, #32]
    44000c10:	a9031fe6 	stp	x6, x7, [sp, #48]
    44000c14:	a90427e8 	stp	x8, x9, [sp, #64]
    44000c18:	a9052fea 	stp	x10, x11, [sp, #80]
    44000c1c:	a90637ec 	stp	x12, x13, [sp, #96]
    44000c20:	a9073fee 	stp	x14, x15, [sp, #112]
    44000c24:	a90847f0 	stp	x16, x17, [sp, #128]
    44000c28:	a9094ff2 	stp	x18, x19, [sp, #144]
    44000c2c:	a90a57f4 	stp	x20, x21, [sp, #160]
    44000c30:	a90b5ff6 	stp	x22, x23, [sp, #176]
    44000c34:	a90c67f8 	stp	x24, x25, [sp, #192]
    44000c38:	a90d6ffa 	stp	x26, x27, [sp, #208]
    44000c3c:	a90e77fc 	stp	x28, x29, [sp, #224]
    44000c40:	d538402a 	mrs	x10, elr_el1
    44000c44:	d538400b 	mrs	x11, spsr_el1
    44000c48:	d538520c 	mrs	x12, esr_el1
    44000c4c:	a90f2fea 	stp	x10, x11, [sp, #240]
    44000c50:	a9107bec 	stp	x12, x30, [sp, #256]
    44000c54:	940002f6 	bl	4400182c <el1h_64_sync>
    44000c58:	a94f2fea 	ldp	x10, x11, [sp, #240]
    44000c5c:	a9507bec 	ldp	x12, x30, [sp, #256]
    44000c60:	d518402a 	msr	elr_el1, x10
    44000c64:	d518400b 	msr	spsr_el1, x11
    44000c68:	d518520c 	msr	esr_el1, x12
    44000c6c:	a94007e0 	ldp	x0, x1, [sp]
    44000c70:	a9410fe2 	ldp	x2, x3, [sp, #16]
    44000c74:	a94217e4 	ldp	x4, x5, [sp, #32]
    44000c78:	a9431fe6 	ldp	x6, x7, [sp, #48]
    44000c7c:	a94427e8 	ldp	x8, x9, [sp, #64]
    44000c80:	a9452fea 	ldp	x10, x11, [sp, #80]
    44000c84:	a94637ec 	ldp	x12, x13, [sp, #96]
    44000c88:	a9473fee 	ldp	x14, x15, [sp, #112]
    44000c8c:	a94847f0 	ldp	x16, x17, [sp, #128]
    44000c90:	a9494ff2 	ldp	x18, x19, [sp, #144]
    44000c94:	a94a57f4 	ldp	x20, x21, [sp, #160]
    44000c98:	a94b5ff6 	ldp	x22, x23, [sp, #176]
    44000c9c:	a94c67f8 	ldp	x24, x25, [sp, #192]
    44000ca0:	a94d6ffa 	ldp	x26, x27, [sp, #208]
    44000ca4:	a94e77fc 	ldp	x28, x29, [sp, #224]
    44000ca8:	910403ff 	add	sp, sp, #0x100
    44000cac:	d69f03e0 	eret
    44000cb0:	d503201f 	nop
    44000cb4:	d503201f 	nop
    44000cb8:	d503201f 	nop
    44000cbc:	d503201f 	nop
    44000cc0:	d503201f 	nop
    44000cc4:	d503201f 	nop
    44000cc8:	d503201f 	nop
    44000ccc:	d503201f 	nop
    44000cd0:	d503201f 	nop
    44000cd4:	d503201f 	nop
    44000cd8:	d503201f 	nop
    44000cdc:	d503201f 	nop
    44000ce0:	d503201f 	nop
    44000ce4:	d503201f 	nop
    44000ce8:	d503201f 	nop
    44000cec:	d503201f 	nop
    44000cf0:	d503201f 	nop
    44000cf4:	d503201f 	nop
    44000cf8:	d503201f 	nop
    44000cfc:	d503201f 	nop

0000000044000d00 <entry_start_15>:
    44000d00:	d10403ff 	sub	sp, sp, #0x100
    44000d04:	a90007e0 	stp	x0, x1, [sp]
    44000d08:	a9010fe2 	stp	x2, x3, [sp, #16]
    44000d0c:	a90217e4 	stp	x4, x5, [sp, #32]
    44000d10:	a9031fe6 	stp	x6, x7, [sp, #48]
    44000d14:	a90427e8 	stp	x8, x9, [sp, #64]
    44000d18:	a9052fea 	stp	x10, x11, [sp, #80]
    44000d1c:	a90637ec 	stp	x12, x13, [sp, #96]
    44000d20:	a9073fee 	stp	x14, x15, [sp, #112]
    44000d24:	a90847f0 	stp	x16, x17, [sp, #128]
    44000d28:	a9094ff2 	stp	x18, x19, [sp, #144]
    44000d2c:	a90a57f4 	stp	x20, x21, [sp, #160]
    44000d30:	a90b5ff6 	stp	x22, x23, [sp, #176]
    44000d34:	a90c67f8 	stp	x24, x25, [sp, #192]
    44000d38:	a90d6ffa 	stp	x26, x27, [sp, #208]
    44000d3c:	a90e77fc 	stp	x28, x29, [sp, #224]
    44000d40:	d538402a 	mrs	x10, elr_el1
    44000d44:	d538400b 	mrs	x11, spsr_el1
    44000d48:	d538520c 	mrs	x12, esr_el1
    44000d4c:	a90f2fea 	stp	x10, x11, [sp, #240]
    44000d50:	a9107bec 	stp	x12, x30, [sp, #256]
    44000d54:	940002b8 	bl	44001834 <el1h_64_irq>
    44000d58:	a94f2fea 	ldp	x10, x11, [sp, #240]
    44000d5c:	a9507bec 	ldp	x12, x30, [sp, #256]
    44000d60:	d518402a 	msr	elr_el1, x10
    44000d64:	d518400b 	msr	spsr_el1, x11
    44000d68:	d518520c 	msr	esr_el1, x12
    44000d6c:	a94007e0 	ldp	x0, x1, [sp]
    44000d70:	a9410fe2 	ldp	x2, x3, [sp, #16]
    44000d74:	a94217e4 	ldp	x4, x5, [sp, #32]
    44000d78:	a9431fe6 	ldp	x6, x7, [sp, #48]
    44000d7c:	a94427e8 	ldp	x8, x9, [sp, #64]
    44000d80:	a9452fea 	ldp	x10, x11, [sp, #80]
    44000d84:	a94637ec 	ldp	x12, x13, [sp, #96]
    44000d88:	a9473fee 	ldp	x14, x15, [sp, #112]
    44000d8c:	a94847f0 	ldp	x16, x17, [sp, #128]
    44000d90:	a9494ff2 	ldp	x18, x19, [sp, #144]
    44000d94:	a94a57f4 	ldp	x20, x21, [sp, #160]
    44000d98:	a94b5ff6 	ldp	x22, x23, [sp, #176]
    44000d9c:	a94c67f8 	ldp	x24, x25, [sp, #192]
    44000da0:	a94d6ffa 	ldp	x26, x27, [sp, #208]
    44000da4:	a94e77fc 	ldp	x28, x29, [sp, #224]
    44000da8:	910403ff 	add	sp, sp, #0x100
    44000dac:	d69f03e0 	eret
    44000db0:	d503201f 	nop
    44000db4:	d503201f 	nop
    44000db8:	d503201f 	nop
    44000dbc:	d503201f 	nop
    44000dc0:	d503201f 	nop
    44000dc4:	d503201f 	nop
    44000dc8:	d503201f 	nop
    44000dcc:	d503201f 	nop
    44000dd0:	d503201f 	nop
    44000dd4:	d503201f 	nop
    44000dd8:	d503201f 	nop
    44000ddc:	d503201f 	nop
    44000de0:	d503201f 	nop
    44000de4:	d503201f 	nop
    44000de8:	d503201f 	nop
    44000dec:	d503201f 	nop
    44000df0:	d503201f 	nop
    44000df4:	d503201f 	nop
    44000df8:	d503201f 	nop
    44000dfc:	d503201f 	nop

0000000044000e00 <entry_start_18>:
    44000e00:	d10403ff 	sub	sp, sp, #0x100
    44000e04:	a90007e0 	stp	x0, x1, [sp]
    44000e08:	a9010fe2 	stp	x2, x3, [sp, #16]
    44000e0c:	a90217e4 	stp	x4, x5, [sp, #32]
    44000e10:	a9031fe6 	stp	x6, x7, [sp, #48]
    44000e14:	a90427e8 	stp	x8, x9, [sp, #64]
    44000e18:	a9052fea 	stp	x10, x11, [sp, #80]
    44000e1c:	a90637ec 	stp	x12, x13, [sp, #96]
    44000e20:	a9073fee 	stp	x14, x15, [sp, #112]
    44000e24:	a90847f0 	stp	x16, x17, [sp, #128]
    44000e28:	a9094ff2 	stp	x18, x19, [sp, #144]
    44000e2c:	a90a57f4 	stp	x20, x21, [sp, #160]
    44000e30:	a90b5ff6 	stp	x22, x23, [sp, #176]
    44000e34:	a90c67f8 	stp	x24, x25, [sp, #192]
    44000e38:	a90d6ffa 	stp	x26, x27, [sp, #208]
    44000e3c:	a90e77fc 	stp	x28, x29, [sp, #224]
    44000e40:	d538402a 	mrs	x10, elr_el1
    44000e44:	d538400b 	mrs	x11, spsr_el1
    44000e48:	d538520c 	mrs	x12, esr_el1
    44000e4c:	a90f2fea 	stp	x10, x11, [sp, #240]
    44000e50:	a9107bec 	stp	x12, x30, [sp, #256]
    44000e54:	9400027a 	bl	4400183c <el1h_64_fiq>
    44000e58:	a94f2fea 	ldp	x10, x11, [sp, #240]
    44000e5c:	a9507bec 	ldp	x12, x30, [sp, #256]
    44000e60:	d518402a 	msr	elr_el1, x10
    44000e64:	d518400b 	msr	spsr_el1, x11
    44000e68:	d518520c 	msr	esr_el1, x12
    44000e6c:	a94007e0 	ldp	x0, x1, [sp]
    44000e70:	a9410fe2 	ldp	x2, x3, [sp, #16]
    44000e74:	a94217e4 	ldp	x4, x5, [sp, #32]
    44000e78:	a9431fe6 	ldp	x6, x7, [sp, #48]
    44000e7c:	a94427e8 	ldp	x8, x9, [sp, #64]
    44000e80:	a9452fea 	ldp	x10, x11, [sp, #80]
    44000e84:	a94637ec 	ldp	x12, x13, [sp, #96]
    44000e88:	a9473fee 	ldp	x14, x15, [sp, #112]
    44000e8c:	a94847f0 	ldp	x16, x17, [sp, #128]
    44000e90:	a9494ff2 	ldp	x18, x19, [sp, #144]
    44000e94:	a94a57f4 	ldp	x20, x21, [sp, #160]
    44000e98:	a94b5ff6 	ldp	x22, x23, [sp, #176]
    44000e9c:	a94c67f8 	ldp	x24, x25, [sp, #192]
    44000ea0:	a94d6ffa 	ldp	x26, x27, [sp, #208]
    44000ea4:	a94e77fc 	ldp	x28, x29, [sp, #224]
    44000ea8:	910403ff 	add	sp, sp, #0x100
    44000eac:	d69f03e0 	eret
    44000eb0:	d503201f 	nop
    44000eb4:	d503201f 	nop
    44000eb8:	d503201f 	nop
    44000ebc:	d503201f 	nop
    44000ec0:	d503201f 	nop
    44000ec4:	d503201f 	nop
    44000ec8:	d503201f 	nop
    44000ecc:	d503201f 	nop
    44000ed0:	d503201f 	nop
    44000ed4:	d503201f 	nop
    44000ed8:	d503201f 	nop
    44000edc:	d503201f 	nop
    44000ee0:	d503201f 	nop
    44000ee4:	d503201f 	nop
    44000ee8:	d503201f 	nop
    44000eec:	d503201f 	nop
    44000ef0:	d503201f 	nop
    44000ef4:	d503201f 	nop
    44000ef8:	d503201f 	nop
    44000efc:	d503201f 	nop

0000000044000f00 <entry_start_21>:
    44000f00:	d10403ff 	sub	sp, sp, #0x100
    44000f04:	a90007e0 	stp	x0, x1, [sp]
    44000f08:	a9010fe2 	stp	x2, x3, [sp, #16]
    44000f0c:	a90217e4 	stp	x4, x5, [sp, #32]
    44000f10:	a9031fe6 	stp	x6, x7, [sp, #48]
    44000f14:	a90427e8 	stp	x8, x9, [sp, #64]
    44000f18:	a9052fea 	stp	x10, x11, [sp, #80]
    44000f1c:	a90637ec 	stp	x12, x13, [sp, #96]
    44000f20:	a9073fee 	stp	x14, x15, [sp, #112]
    44000f24:	a90847f0 	stp	x16, x17, [sp, #128]
    44000f28:	a9094ff2 	stp	x18, x19, [sp, #144]
    44000f2c:	a90a57f4 	stp	x20, x21, [sp, #160]
    44000f30:	a90b5ff6 	stp	x22, x23, [sp, #176]
    44000f34:	a90c67f8 	stp	x24, x25, [sp, #192]
    44000f38:	a90d6ffa 	stp	x26, x27, [sp, #208]
    44000f3c:	a90e77fc 	stp	x28, x29, [sp, #224]
    44000f40:	d538402a 	mrs	x10, elr_el1
    44000f44:	d538400b 	mrs	x11, spsr_el1
    44000f48:	d538520c 	mrs	x12, esr_el1
    44000f4c:	a90f2fea 	stp	x10, x11, [sp, #240]
    44000f50:	a9107bec 	stp	x12, x30, [sp, #256]
    44000f54:	9400023c 	bl	44001844 <el1h_64_error>
    44000f58:	a94f2fea 	ldp	x10, x11, [sp, #240]
    44000f5c:	a9507bec 	ldp	x12, x30, [sp, #256]
    44000f60:	d518402a 	msr	elr_el1, x10
    44000f64:	d518400b 	msr	spsr_el1, x11
    44000f68:	d518520c 	msr	esr_el1, x12
    44000f6c:	a94007e0 	ldp	x0, x1, [sp]
    44000f70:	a9410fe2 	ldp	x2, x3, [sp, #16]
    44000f74:	a94217e4 	ldp	x4, x5, [sp, #32]
    44000f78:	a9431fe6 	ldp	x6, x7, [sp, #48]
    44000f7c:	a94427e8 	ldp	x8, x9, [sp, #64]
    44000f80:	a9452fea 	ldp	x10, x11, [sp, #80]
    44000f84:	a94637ec 	ldp	x12, x13, [sp, #96]
    44000f88:	a9473fee 	ldp	x14, x15, [sp, #112]
    44000f8c:	a94847f0 	ldp	x16, x17, [sp, #128]
    44000f90:	a9494ff2 	ldp	x18, x19, [sp, #144]
    44000f94:	a94a57f4 	ldp	x20, x21, [sp, #160]
    44000f98:	a94b5ff6 	ldp	x22, x23, [sp, #176]
    44000f9c:	a94c67f8 	ldp	x24, x25, [sp, #192]
    44000fa0:	a94d6ffa 	ldp	x26, x27, [sp, #208]
    44000fa4:	a94e77fc 	ldp	x28, x29, [sp, #224]
    44000fa8:	910403ff 	add	sp, sp, #0x100
    44000fac:	d69f03e0 	eret
    44000fb0:	d503201f 	nop
    44000fb4:	d503201f 	nop
    44000fb8:	d503201f 	nop
    44000fbc:	d503201f 	nop
    44000fc0:	d503201f 	nop
    44000fc4:	d503201f 	nop
    44000fc8:	d503201f 	nop
    44000fcc:	d503201f 	nop
    44000fd0:	d503201f 	nop
    44000fd4:	d503201f 	nop
    44000fd8:	d503201f 	nop
    44000fdc:	d503201f 	nop
    44000fe0:	d503201f 	nop
    44000fe4:	d503201f 	nop
    44000fe8:	d503201f 	nop
    44000fec:	d503201f 	nop
    44000ff0:	d503201f 	nop
    44000ff4:	d503201f 	nop
    44000ff8:	d503201f 	nop
    44000ffc:	d503201f 	nop

0000000044001000 <entry_start_24>:
    44001000:	d10403ff 	sub	sp, sp, #0x100
    44001004:	a90007e0 	stp	x0, x1, [sp]
    44001008:	a9010fe2 	stp	x2, x3, [sp, #16]
    4400100c:	a90217e4 	stp	x4, x5, [sp, #32]
    44001010:	a9031fe6 	stp	x6, x7, [sp, #48]
    44001014:	a90427e8 	stp	x8, x9, [sp, #64]
    44001018:	a9052fea 	stp	x10, x11, [sp, #80]
    4400101c:	a90637ec 	stp	x12, x13, [sp, #96]
    44001020:	a9073fee 	stp	x14, x15, [sp, #112]
    44001024:	a90847f0 	stp	x16, x17, [sp, #128]
    44001028:	a9094ff2 	stp	x18, x19, [sp, #144]
    4400102c:	a90a57f4 	stp	x20, x21, [sp, #160]
    44001030:	a90b5ff6 	stp	x22, x23, [sp, #176]
    44001034:	a90c67f8 	stp	x24, x25, [sp, #192]
    44001038:	a90d6ffa 	stp	x26, x27, [sp, #208]
    4400103c:	a90e77fc 	stp	x28, x29, [sp, #224]
    44001040:	d538402a 	mrs	x10, elr_el1
    44001044:	d538400b 	mrs	x11, spsr_el1
    44001048:	d538520c 	mrs	x12, esr_el1
    4400104c:	a90f2fea 	stp	x10, x11, [sp, #240]
    44001050:	a9107bec 	stp	x12, x30, [sp, #256]
    44001054:	940001fe 	bl	4400184c <el0t_64_sync>
    44001058:	a94f2fea 	ldp	x10, x11, [sp, #240]
    4400105c:	a9507bec 	ldp	x12, x30, [sp, #256]
    44001060:	d518402a 	msr	elr_el1, x10
    44001064:	d518400b 	msr	spsr_el1, x11
    44001068:	d518520c 	msr	esr_el1, x12
    4400106c:	a94007e0 	ldp	x0, x1, [sp]
    44001070:	a9410fe2 	ldp	x2, x3, [sp, #16]
    44001074:	a94217e4 	ldp	x4, x5, [sp, #32]
    44001078:	a9431fe6 	ldp	x6, x7, [sp, #48]
    4400107c:	a94427e8 	ldp	x8, x9, [sp, #64]
    44001080:	a9452fea 	ldp	x10, x11, [sp, #80]
    44001084:	a94637ec 	ldp	x12, x13, [sp, #96]
    44001088:	a9473fee 	ldp	x14, x15, [sp, #112]
    4400108c:	a94847f0 	ldp	x16, x17, [sp, #128]
    44001090:	a9494ff2 	ldp	x18, x19, [sp, #144]
    44001094:	a94a57f4 	ldp	x20, x21, [sp, #160]
    44001098:	a94b5ff6 	ldp	x22, x23, [sp, #176]
    4400109c:	a94c67f8 	ldp	x24, x25, [sp, #192]
    440010a0:	a94d6ffa 	ldp	x26, x27, [sp, #208]
    440010a4:	a94e77fc 	ldp	x28, x29, [sp, #224]
    440010a8:	910403ff 	add	sp, sp, #0x100
    440010ac:	d69f03e0 	eret
    440010b0:	d503201f 	nop
    440010b4:	d503201f 	nop
    440010b8:	d503201f 	nop
    440010bc:	d503201f 	nop
    440010c0:	d503201f 	nop
    440010c4:	d503201f 	nop
    440010c8:	d503201f 	nop
    440010cc:	d503201f 	nop
    440010d0:	d503201f 	nop
    440010d4:	d503201f 	nop
    440010d8:	d503201f 	nop
    440010dc:	d503201f 	nop
    440010e0:	d503201f 	nop
    440010e4:	d503201f 	nop
    440010e8:	d503201f 	nop
    440010ec:	d503201f 	nop
    440010f0:	d503201f 	nop
    440010f4:	d503201f 	nop
    440010f8:	d503201f 	nop
    440010fc:	d503201f 	nop

0000000044001100 <entry_start_27>:
    44001100:	d10403ff 	sub	sp, sp, #0x100
    44001104:	a90007e0 	stp	x0, x1, [sp]
    44001108:	a9010fe2 	stp	x2, x3, [sp, #16]
    4400110c:	a90217e4 	stp	x4, x5, [sp, #32]
    44001110:	a9031fe6 	stp	x6, x7, [sp, #48]
    44001114:	a90427e8 	stp	x8, x9, [sp, #64]
    44001118:	a9052fea 	stp	x10, x11, [sp, #80]
    4400111c:	a90637ec 	stp	x12, x13, [sp, #96]
    44001120:	a9073fee 	stp	x14, x15, [sp, #112]
    44001124:	a90847f0 	stp	x16, x17, [sp, #128]
    44001128:	a9094ff2 	stp	x18, x19, [sp, #144]
    4400112c:	a90a57f4 	stp	x20, x21, [sp, #160]
    44001130:	a90b5ff6 	stp	x22, x23, [sp, #176]
    44001134:	a90c67f8 	stp	x24, x25, [sp, #192]
    44001138:	a90d6ffa 	stp	x26, x27, [sp, #208]
    4400113c:	a90e77fc 	stp	x28, x29, [sp, #224]
    44001140:	d538402a 	mrs	x10, elr_el1
    44001144:	d538400b 	mrs	x11, spsr_el1
    44001148:	d538520c 	mrs	x12, esr_el1
    4400114c:	a90f2fea 	stp	x10, x11, [sp, #240]
    44001150:	a9107bec 	stp	x12, x30, [sp, #256]
    44001154:	940001c0 	bl	44001854 <el0t_64_irq>
    44001158:	a94f2fea 	ldp	x10, x11, [sp, #240]
    4400115c:	a9507bec 	ldp	x12, x30, [sp, #256]
    44001160:	d518402a 	msr	elr_el1, x10
    44001164:	d518400b 	msr	spsr_el1, x11
    44001168:	d518520c 	msr	esr_el1, x12
    4400116c:	a94007e0 	ldp	x0, x1, [sp]
    44001170:	a9410fe2 	ldp	x2, x3, [sp, #16]
    44001174:	a94217e4 	ldp	x4, x5, [sp, #32]
    44001178:	a9431fe6 	ldp	x6, x7, [sp, #48]
    4400117c:	a94427e8 	ldp	x8, x9, [sp, #64]
    44001180:	a9452fea 	ldp	x10, x11, [sp, #80]
    44001184:	a94637ec 	ldp	x12, x13, [sp, #96]
    44001188:	a9473fee 	ldp	x14, x15, [sp, #112]
    4400118c:	a94847f0 	ldp	x16, x17, [sp, #128]
    44001190:	a9494ff2 	ldp	x18, x19, [sp, #144]
    44001194:	a94a57f4 	ldp	x20, x21, [sp, #160]
    44001198:	a94b5ff6 	ldp	x22, x23, [sp, #176]
    4400119c:	a94c67f8 	ldp	x24, x25, [sp, #192]
    440011a0:	a94d6ffa 	ldp	x26, x27, [sp, #208]
    440011a4:	a94e77fc 	ldp	x28, x29, [sp, #224]
    440011a8:	910403ff 	add	sp, sp, #0x100
    440011ac:	d69f03e0 	eret
    440011b0:	d503201f 	nop
    440011b4:	d503201f 	nop
    440011b8:	d503201f 	nop
    440011bc:	d503201f 	nop
    440011c0:	d503201f 	nop
    440011c4:	d503201f 	nop
    440011c8:	d503201f 	nop
    440011cc:	d503201f 	nop
    440011d0:	d503201f 	nop
    440011d4:	d503201f 	nop
    440011d8:	d503201f 	nop
    440011dc:	d503201f 	nop
    440011e0:	d503201f 	nop
    440011e4:	d503201f 	nop
    440011e8:	d503201f 	nop
    440011ec:	d503201f 	nop
    440011f0:	d503201f 	nop
    440011f4:	d503201f 	nop
    440011f8:	d503201f 	nop
    440011fc:	d503201f 	nop

0000000044001200 <entry_start_30>:
    44001200:	d10403ff 	sub	sp, sp, #0x100
    44001204:	a90007e0 	stp	x0, x1, [sp]
    44001208:	a9010fe2 	stp	x2, x3, [sp, #16]
    4400120c:	a90217e4 	stp	x4, x5, [sp, #32]
    44001210:	a9031fe6 	stp	x6, x7, [sp, #48]
    44001214:	a90427e8 	stp	x8, x9, [sp, #64]
    44001218:	a9052fea 	stp	x10, x11, [sp, #80]
    4400121c:	a90637ec 	stp	x12, x13, [sp, #96]
    44001220:	a9073fee 	stp	x14, x15, [sp, #112]
    44001224:	a90847f0 	stp	x16, x17, [sp, #128]
    44001228:	a9094ff2 	stp	x18, x19, [sp, #144]
    4400122c:	a90a57f4 	stp	x20, x21, [sp, #160]
    44001230:	a90b5ff6 	stp	x22, x23, [sp, #176]
    44001234:	a90c67f8 	stp	x24, x25, [sp, #192]
    44001238:	a90d6ffa 	stp	x26, x27, [sp, #208]
    4400123c:	a90e77fc 	stp	x28, x29, [sp, #224]
    44001240:	d538402a 	mrs	x10, elr_el1
    44001244:	d538400b 	mrs	x11, spsr_el1
    44001248:	d538520c 	mrs	x12, esr_el1
    4400124c:	a90f2fea 	stp	x10, x11, [sp, #240]
    44001250:	a9107bec 	stp	x12, x30, [sp, #256]
    44001254:	94000182 	bl	4400185c <el0t_64_fiq>
    44001258:	a94f2fea 	ldp	x10, x11, [sp, #240]
    4400125c:	a9507bec 	ldp	x12, x30, [sp, #256]
    44001260:	d518402a 	msr	elr_el1, x10
    44001264:	d518400b 	msr	spsr_el1, x11
    44001268:	d518520c 	msr	esr_el1, x12
    4400126c:	a94007e0 	ldp	x0, x1, [sp]
    44001270:	a9410fe2 	ldp	x2, x3, [sp, #16]
    44001274:	a94217e4 	ldp	x4, x5, [sp, #32]
    44001278:	a9431fe6 	ldp	x6, x7, [sp, #48]
    4400127c:	a94427e8 	ldp	x8, x9, [sp, #64]
    44001280:	a9452fea 	ldp	x10, x11, [sp, #80]
    44001284:	a94637ec 	ldp	x12, x13, [sp, #96]
    44001288:	a9473fee 	ldp	x14, x15, [sp, #112]
    4400128c:	a94847f0 	ldp	x16, x17, [sp, #128]
    44001290:	a9494ff2 	ldp	x18, x19, [sp, #144]
    44001294:	a94a57f4 	ldp	x20, x21, [sp, #160]
    44001298:	a94b5ff6 	ldp	x22, x23, [sp, #176]
    4400129c:	a94c67f8 	ldp	x24, x25, [sp, #192]
    440012a0:	a94d6ffa 	ldp	x26, x27, [sp, #208]
    440012a4:	a94e77fc 	ldp	x28, x29, [sp, #224]
    440012a8:	910403ff 	add	sp, sp, #0x100
    440012ac:	d69f03e0 	eret
    440012b0:	d503201f 	nop
    440012b4:	d503201f 	nop
    440012b8:	d503201f 	nop
    440012bc:	d503201f 	nop
    440012c0:	d503201f 	nop
    440012c4:	d503201f 	nop
    440012c8:	d503201f 	nop
    440012cc:	d503201f 	nop
    440012d0:	d503201f 	nop
    440012d4:	d503201f 	nop
    440012d8:	d503201f 	nop
    440012dc:	d503201f 	nop
    440012e0:	d503201f 	nop
    440012e4:	d503201f 	nop
    440012e8:	d503201f 	nop
    440012ec:	d503201f 	nop
    440012f0:	d503201f 	nop
    440012f4:	d503201f 	nop
    440012f8:	d503201f 	nop
    440012fc:	d503201f 	nop

0000000044001300 <entry_start_33>:
    44001300:	d10403ff 	sub	sp, sp, #0x100
    44001304:	a90007e0 	stp	x0, x1, [sp]
    44001308:	a9010fe2 	stp	x2, x3, [sp, #16]
    4400130c:	a90217e4 	stp	x4, x5, [sp, #32]
    44001310:	a9031fe6 	stp	x6, x7, [sp, #48]
    44001314:	a90427e8 	stp	x8, x9, [sp, #64]
    44001318:	a9052fea 	stp	x10, x11, [sp, #80]
    4400131c:	a90637ec 	stp	x12, x13, [sp, #96]
    44001320:	a9073fee 	stp	x14, x15, [sp, #112]
    44001324:	a90847f0 	stp	x16, x17, [sp, #128]
    44001328:	a9094ff2 	stp	x18, x19, [sp, #144]
    4400132c:	a90a57f4 	stp	x20, x21, [sp, #160]
    44001330:	a90b5ff6 	stp	x22, x23, [sp, #176]
    44001334:	a90c67f8 	stp	x24, x25, [sp, #192]
    44001338:	a90d6ffa 	stp	x26, x27, [sp, #208]
    4400133c:	a90e77fc 	stp	x28, x29, [sp, #224]
    44001340:	d538402a 	mrs	x10, elr_el1
    44001344:	d538400b 	mrs	x11, spsr_el1
    44001348:	d538520c 	mrs	x12, esr_el1
    4400134c:	a90f2fea 	stp	x10, x11, [sp, #240]
    44001350:	a9107bec 	stp	x12, x30, [sp, #256]
    44001354:	94000144 	bl	44001864 <el0t_64_error>
    44001358:	a94f2fea 	ldp	x10, x11, [sp, #240]
    4400135c:	a9507bec 	ldp	x12, x30, [sp, #256]
    44001360:	d518402a 	msr	elr_el1, x10
    44001364:	d518400b 	msr	spsr_el1, x11
    44001368:	d518520c 	msr	esr_el1, x12
    4400136c:	a94007e0 	ldp	x0, x1, [sp]
    44001370:	a9410fe2 	ldp	x2, x3, [sp, #16]
    44001374:	a94217e4 	ldp	x4, x5, [sp, #32]
    44001378:	a9431fe6 	ldp	x6, x7, [sp, #48]
    4400137c:	a94427e8 	ldp	x8, x9, [sp, #64]
    44001380:	a9452fea 	ldp	x10, x11, [sp, #80]
    44001384:	a94637ec 	ldp	x12, x13, [sp, #96]
    44001388:	a9473fee 	ldp	x14, x15, [sp, #112]
    4400138c:	a94847f0 	ldp	x16, x17, [sp, #128]
    44001390:	a9494ff2 	ldp	x18, x19, [sp, #144]
    44001394:	a94a57f4 	ldp	x20, x21, [sp, #160]
    44001398:	a94b5ff6 	ldp	x22, x23, [sp, #176]
    4400139c:	a94c67f8 	ldp	x24, x25, [sp, #192]
    440013a0:	a94d6ffa 	ldp	x26, x27, [sp, #208]
    440013a4:	a94e77fc 	ldp	x28, x29, [sp, #224]
    440013a8:	910403ff 	add	sp, sp, #0x100
    440013ac:	d69f03e0 	eret
    440013b0:	d503201f 	nop
    440013b4:	d503201f 	nop
    440013b8:	d503201f 	nop
    440013bc:	d503201f 	nop
    440013c0:	d503201f 	nop
    440013c4:	d503201f 	nop
    440013c8:	d503201f 	nop
    440013cc:	d503201f 	nop
    440013d0:	d503201f 	nop
    440013d4:	d503201f 	nop
    440013d8:	d503201f 	nop
    440013dc:	d503201f 	nop
    440013e0:	d503201f 	nop
    440013e4:	d503201f 	nop
    440013e8:	d503201f 	nop
    440013ec:	d503201f 	nop
    440013f0:	d503201f 	nop
    440013f4:	d503201f 	nop
    440013f8:	d503201f 	nop
    440013fc:	d503201f 	nop

0000000044001400 <entry_start_36>:
    44001400:	d10403ff 	sub	sp, sp, #0x100
    44001404:	a90007e0 	stp	x0, x1, [sp]
    44001408:	a9010fe2 	stp	x2, x3, [sp, #16]
    4400140c:	a90217e4 	stp	x4, x5, [sp, #32]
    44001410:	a9031fe6 	stp	x6, x7, [sp, #48]
    44001414:	a90427e8 	stp	x8, x9, [sp, #64]
    44001418:	a9052fea 	stp	x10, x11, [sp, #80]
    4400141c:	a90637ec 	stp	x12, x13, [sp, #96]
    44001420:	a9073fee 	stp	x14, x15, [sp, #112]
    44001424:	a90847f0 	stp	x16, x17, [sp, #128]
    44001428:	a9094ff2 	stp	x18, x19, [sp, #144]
    4400142c:	a90a57f4 	stp	x20, x21, [sp, #160]
    44001430:	a90b5ff6 	stp	x22, x23, [sp, #176]
    44001434:	a90c67f8 	stp	x24, x25, [sp, #192]
    44001438:	a90d6ffa 	stp	x26, x27, [sp, #208]
    4400143c:	a90e77fc 	stp	x28, x29, [sp, #224]
    44001440:	d538402a 	mrs	x10, elr_el1
    44001444:	d538400b 	mrs	x11, spsr_el1
    44001448:	d538520c 	mrs	x12, esr_el1
    4400144c:	a90f2fea 	stp	x10, x11, [sp, #240]
    44001450:	a9107bec 	stp	x12, x30, [sp, #256]
    44001454:	94000106 	bl	4400186c <el0t_32_sync>
    44001458:	a94f2fea 	ldp	x10, x11, [sp, #240]
    4400145c:	a9507bec 	ldp	x12, x30, [sp, #256]
    44001460:	d518402a 	msr	elr_el1, x10
    44001464:	d518400b 	msr	spsr_el1, x11
    44001468:	d518520c 	msr	esr_el1, x12
    4400146c:	a94007e0 	ldp	x0, x1, [sp]
    44001470:	a9410fe2 	ldp	x2, x3, [sp, #16]
    44001474:	a94217e4 	ldp	x4, x5, [sp, #32]
    44001478:	a9431fe6 	ldp	x6, x7, [sp, #48]
    4400147c:	a94427e8 	ldp	x8, x9, [sp, #64]
    44001480:	a9452fea 	ldp	x10, x11, [sp, #80]
    44001484:	a94637ec 	ldp	x12, x13, [sp, #96]
    44001488:	a9473fee 	ldp	x14, x15, [sp, #112]
    4400148c:	a94847f0 	ldp	x16, x17, [sp, #128]
    44001490:	a9494ff2 	ldp	x18, x19, [sp, #144]
    44001494:	a94a57f4 	ldp	x20, x21, [sp, #160]
    44001498:	a94b5ff6 	ldp	x22, x23, [sp, #176]
    4400149c:	a94c67f8 	ldp	x24, x25, [sp, #192]
    440014a0:	a94d6ffa 	ldp	x26, x27, [sp, #208]
    440014a4:	a94e77fc 	ldp	x28, x29, [sp, #224]
    440014a8:	910403ff 	add	sp, sp, #0x100
    440014ac:	d69f03e0 	eret
    440014b0:	d503201f 	nop
    440014b4:	d503201f 	nop
    440014b8:	d503201f 	nop
    440014bc:	d503201f 	nop
    440014c0:	d503201f 	nop
    440014c4:	d503201f 	nop
    440014c8:	d503201f 	nop
    440014cc:	d503201f 	nop
    440014d0:	d503201f 	nop
    440014d4:	d503201f 	nop
    440014d8:	d503201f 	nop
    440014dc:	d503201f 	nop
    440014e0:	d503201f 	nop
    440014e4:	d503201f 	nop
    440014e8:	d503201f 	nop
    440014ec:	d503201f 	nop
    440014f0:	d503201f 	nop
    440014f4:	d503201f 	nop
    440014f8:	d503201f 	nop
    440014fc:	d503201f 	nop

0000000044001500 <entry_start_39>:
    44001500:	d10403ff 	sub	sp, sp, #0x100
    44001504:	a90007e0 	stp	x0, x1, [sp]
    44001508:	a9010fe2 	stp	x2, x3, [sp, #16]
    4400150c:	a90217e4 	stp	x4, x5, [sp, #32]
    44001510:	a9031fe6 	stp	x6, x7, [sp, #48]
    44001514:	a90427e8 	stp	x8, x9, [sp, #64]
    44001518:	a9052fea 	stp	x10, x11, [sp, #80]
    4400151c:	a90637ec 	stp	x12, x13, [sp, #96]
    44001520:	a9073fee 	stp	x14, x15, [sp, #112]
    44001524:	a90847f0 	stp	x16, x17, [sp, #128]
    44001528:	a9094ff2 	stp	x18, x19, [sp, #144]
    4400152c:	a90a57f4 	stp	x20, x21, [sp, #160]
    44001530:	a90b5ff6 	stp	x22, x23, [sp, #176]
    44001534:	a90c67f8 	stp	x24, x25, [sp, #192]
    44001538:	a90d6ffa 	stp	x26, x27, [sp, #208]
    4400153c:	a90e77fc 	stp	x28, x29, [sp, #224]
    44001540:	d538402a 	mrs	x10, elr_el1
    44001544:	d538400b 	mrs	x11, spsr_el1
    44001548:	d538520c 	mrs	x12, esr_el1
    4400154c:	a90f2fea 	stp	x10, x11, [sp, #240]
    44001550:	a9107bec 	stp	x12, x30, [sp, #256]
    44001554:	940000c8 	bl	44001874 <el0t_32_irq>
    44001558:	a94f2fea 	ldp	x10, x11, [sp, #240]
    4400155c:	a9507bec 	ldp	x12, x30, [sp, #256]
    44001560:	d518402a 	msr	elr_el1, x10
    44001564:	d518400b 	msr	spsr_el1, x11
    44001568:	d518520c 	msr	esr_el1, x12
    4400156c:	a94007e0 	ldp	x0, x1, [sp]
    44001570:	a9410fe2 	ldp	x2, x3, [sp, #16]
    44001574:	a94217e4 	ldp	x4, x5, [sp, #32]
    44001578:	a9431fe6 	ldp	x6, x7, [sp, #48]
    4400157c:	a94427e8 	ldp	x8, x9, [sp, #64]
    44001580:	a9452fea 	ldp	x10, x11, [sp, #80]
    44001584:	a94637ec 	ldp	x12, x13, [sp, #96]
    44001588:	a9473fee 	ldp	x14, x15, [sp, #112]
    4400158c:	a94847f0 	ldp	x16, x17, [sp, #128]
    44001590:	a9494ff2 	ldp	x18, x19, [sp, #144]
    44001594:	a94a57f4 	ldp	x20, x21, [sp, #160]
    44001598:	a94b5ff6 	ldp	x22, x23, [sp, #176]
    4400159c:	a94c67f8 	ldp	x24, x25, [sp, #192]
    440015a0:	a94d6ffa 	ldp	x26, x27, [sp, #208]
    440015a4:	a94e77fc 	ldp	x28, x29, [sp, #224]
    440015a8:	910403ff 	add	sp, sp, #0x100
    440015ac:	d69f03e0 	eret
    440015b0:	d503201f 	nop
    440015b4:	d503201f 	nop
    440015b8:	d503201f 	nop
    440015bc:	d503201f 	nop
    440015c0:	d503201f 	nop
    440015c4:	d503201f 	nop
    440015c8:	d503201f 	nop
    440015cc:	d503201f 	nop
    440015d0:	d503201f 	nop
    440015d4:	d503201f 	nop
    440015d8:	d503201f 	nop
    440015dc:	d503201f 	nop
    440015e0:	d503201f 	nop
    440015e4:	d503201f 	nop
    440015e8:	d503201f 	nop
    440015ec:	d503201f 	nop
    440015f0:	d503201f 	nop
    440015f4:	d503201f 	nop
    440015f8:	d503201f 	nop
    440015fc:	d503201f 	nop

0000000044001600 <entry_start_42>:
    44001600:	d10403ff 	sub	sp, sp, #0x100
    44001604:	a90007e0 	stp	x0, x1, [sp]
    44001608:	a9010fe2 	stp	x2, x3, [sp, #16]
    4400160c:	a90217e4 	stp	x4, x5, [sp, #32]
    44001610:	a9031fe6 	stp	x6, x7, [sp, #48]
    44001614:	a90427e8 	stp	x8, x9, [sp, #64]
    44001618:	a9052fea 	stp	x10, x11, [sp, #80]
    4400161c:	a90637ec 	stp	x12, x13, [sp, #96]
    44001620:	a9073fee 	stp	x14, x15, [sp, #112]
    44001624:	a90847f0 	stp	x16, x17, [sp, #128]
    44001628:	a9094ff2 	stp	x18, x19, [sp, #144]
    4400162c:	a90a57f4 	stp	x20, x21, [sp, #160]
    44001630:	a90b5ff6 	stp	x22, x23, [sp, #176]
    44001634:	a90c67f8 	stp	x24, x25, [sp, #192]
    44001638:	a90d6ffa 	stp	x26, x27, [sp, #208]
    4400163c:	a90e77fc 	stp	x28, x29, [sp, #224]
    44001640:	d538402a 	mrs	x10, elr_el1
    44001644:	d538400b 	mrs	x11, spsr_el1
    44001648:	d538520c 	mrs	x12, esr_el1
    4400164c:	a90f2fea 	stp	x10, x11, [sp, #240]
    44001650:	a9107bec 	stp	x12, x30, [sp, #256]
    44001654:	9400008a 	bl	4400187c <el0t_32_fiq>
    44001658:	a94f2fea 	ldp	x10, x11, [sp, #240]
    4400165c:	a9507bec 	ldp	x12, x30, [sp, #256]
    44001660:	d518402a 	msr	elr_el1, x10
    44001664:	d518400b 	msr	spsr_el1, x11
    44001668:	d518520c 	msr	esr_el1, x12
    4400166c:	a94007e0 	ldp	x0, x1, [sp]
    44001670:	a9410fe2 	ldp	x2, x3, [sp, #16]
    44001674:	a94217e4 	ldp	x4, x5, [sp, #32]
    44001678:	a9431fe6 	ldp	x6, x7, [sp, #48]
    4400167c:	a94427e8 	ldp	x8, x9, [sp, #64]
    44001680:	a9452fea 	ldp	x10, x11, [sp, #80]
    44001684:	a94637ec 	ldp	x12, x13, [sp, #96]
    44001688:	a9473fee 	ldp	x14, x15, [sp, #112]
    4400168c:	a94847f0 	ldp	x16, x17, [sp, #128]
    44001690:	a9494ff2 	ldp	x18, x19, [sp, #144]
    44001694:	a94a57f4 	ldp	x20, x21, [sp, #160]
    44001698:	a94b5ff6 	ldp	x22, x23, [sp, #176]
    4400169c:	a94c67f8 	ldp	x24, x25, [sp, #192]
    440016a0:	a94d6ffa 	ldp	x26, x27, [sp, #208]
    440016a4:	a94e77fc 	ldp	x28, x29, [sp, #224]
    440016a8:	910403ff 	add	sp, sp, #0x100
    440016ac:	d69f03e0 	eret
    440016b0:	d503201f 	nop
    440016b4:	d503201f 	nop
    440016b8:	d503201f 	nop
    440016bc:	d503201f 	nop
    440016c0:	d503201f 	nop
    440016c4:	d503201f 	nop
    440016c8:	d503201f 	nop
    440016cc:	d503201f 	nop
    440016d0:	d503201f 	nop
    440016d4:	d503201f 	nop
    440016d8:	d503201f 	nop
    440016dc:	d503201f 	nop
    440016e0:	d503201f 	nop
    440016e4:	d503201f 	nop
    440016e8:	d503201f 	nop
    440016ec:	d503201f 	nop
    440016f0:	d503201f 	nop
    440016f4:	d503201f 	nop
    440016f8:	d503201f 	nop
    440016fc:	d503201f 	nop

0000000044001700 <entry_start_45>:
    44001700:	d10403ff 	sub	sp, sp, #0x100
    44001704:	a90007e0 	stp	x0, x1, [sp]
    44001708:	a9010fe2 	stp	x2, x3, [sp, #16]
    4400170c:	a90217e4 	stp	x4, x5, [sp, #32]
    44001710:	a9031fe6 	stp	x6, x7, [sp, #48]
    44001714:	a90427e8 	stp	x8, x9, [sp, #64]
    44001718:	a9052fea 	stp	x10, x11, [sp, #80]
    4400171c:	a90637ec 	stp	x12, x13, [sp, #96]
    44001720:	a9073fee 	stp	x14, x15, [sp, #112]
    44001724:	a90847f0 	stp	x16, x17, [sp, #128]
    44001728:	a9094ff2 	stp	x18, x19, [sp, #144]
    4400172c:	a90a57f4 	stp	x20, x21, [sp, #160]
    44001730:	a90b5ff6 	stp	x22, x23, [sp, #176]
    44001734:	a90c67f8 	stp	x24, x25, [sp, #192]
    44001738:	a90d6ffa 	stp	x26, x27, [sp, #208]
    4400173c:	a90e77fc 	stp	x28, x29, [sp, #224]
    44001740:	d538402a 	mrs	x10, elr_el1
    44001744:	d538400b 	mrs	x11, spsr_el1
    44001748:	d538520c 	mrs	x12, esr_el1
    4400174c:	a90f2fea 	stp	x10, x11, [sp, #240]
    44001750:	a9107bec 	stp	x12, x30, [sp, #256]
    44001754:	9400004c 	bl	44001884 <el0t_32_error>
    44001758:	a94f2fea 	ldp	x10, x11, [sp, #240]
    4400175c:	a9507bec 	ldp	x12, x30, [sp, #256]
    44001760:	d518402a 	msr	elr_el1, x10
    44001764:	d518400b 	msr	spsr_el1, x11
    44001768:	d518520c 	msr	esr_el1, x12
    4400176c:	a94007e0 	ldp	x0, x1, [sp]
    44001770:	a9410fe2 	ldp	x2, x3, [sp, #16]
    44001774:	a94217e4 	ldp	x4, x5, [sp, #32]
    44001778:	a9431fe6 	ldp	x6, x7, [sp, #48]
    4400177c:	a94427e8 	ldp	x8, x9, [sp, #64]
    44001780:	a9452fea 	ldp	x10, x11, [sp, #80]
    44001784:	a94637ec 	ldp	x12, x13, [sp, #96]
    44001788:	a9473fee 	ldp	x14, x15, [sp, #112]
    4400178c:	a94847f0 	ldp	x16, x17, [sp, #128]
    44001790:	a9494ff2 	ldp	x18, x19, [sp, #144]
    44001794:	a94a57f4 	ldp	x20, x21, [sp, #160]
    44001798:	a94b5ff6 	ldp	x22, x23, [sp, #176]
    4400179c:	a94c67f8 	ldp	x24, x25, [sp, #192]
    440017a0:	a94d6ffa 	ldp	x26, x27, [sp, #208]
    440017a4:	a94e77fc 	ldp	x28, x29, [sp, #224]
    440017a8:	910403ff 	add	sp, sp, #0x100
    440017ac:	d69f03e0 	eret

Disassembly of section .text:

00000000440017b0 <cpu_intrpt_save>:
    440017b0:	d65f03c0 	ret

00000000440017b4 <cpu_intrpt_restore>:
    440017b4:	d65f03c0 	ret

00000000440017b8 <cpu_intrpt_switch>:
    440017b8:	d65f03c0 	ret

00000000440017bc <cpu_switch_to>:
    440017bc:	f9400008 	ldr	x8, [x0]
    440017c0:	910003e9 	mov	x9, sp
    440017c4:	a8815113 	stp	x19, x20, [x8], #16
    440017c8:	a8815915 	stp	x21, x22, [x8], #16
    440017cc:	a8816117 	stp	x23, x24, [x8], #16
    440017d0:	a8816919 	stp	x25, x26, [x8], #16
    440017d4:	a881711b 	stp	x27, x28, [x8], #16
    440017d8:	a881251d 	stp	x29, x9, [x8], #16
    440017dc:	f900011e 	str	x30, [x8]
    440017e0:	f9400028 	ldr	x8, [x1]
    440017e4:	a8c15113 	ldp	x19, x20, [x8], #16
    440017e8:	a8c15915 	ldp	x21, x22, [x8], #16
    440017ec:	a8c16117 	ldp	x23, x24, [x8], #16
    440017f0:	a8c16919 	ldp	x25, x26, [x8], #16
    440017f4:	a8c1711b 	ldp	x27, x28, [x8], #16
    440017f8:	a8c1251d 	ldp	x29, x9, [x8], #16
    440017fc:	f940011e 	ldr	x30, [x8]
    44001800:	9100013f 	mov	sp, x9
    44001804:	d65f03c0 	ret

0000000044001808 <cpu_first_task_start>:
    44001808:	d65f03c0 	ret

000000004400180c <el1t_64_sync>:
    4400180c:	d503201f 	nop
    44001810:	d65f03c0 	ret

0000000044001814 <el1t_64_irq>:
    44001814:	d503201f 	nop
    44001818:	d65f03c0 	ret

000000004400181c <el1t_64_fiq>:
    4400181c:	d503201f 	nop
    44001820:	d65f03c0 	ret

0000000044001824 <el1t_64_error>:
    44001824:	d503201f 	nop
    44001828:	d65f03c0 	ret

000000004400182c <el1h_64_sync>:
    4400182c:	d503201f 	nop
    44001830:	d65f03c0 	ret

0000000044001834 <el1h_64_irq>:
    44001834:	d503201f 	nop
    44001838:	d65f03c0 	ret

000000004400183c <el1h_64_fiq>:
    4400183c:	d503201f 	nop
    44001840:	d65f03c0 	ret

0000000044001844 <el1h_64_error>:
    44001844:	d503201f 	nop
    44001848:	d65f03c0 	ret

000000004400184c <el0t_64_sync>:
    4400184c:	d503201f 	nop
    44001850:	d65f03c0 	ret

0000000044001854 <el0t_64_irq>:
    44001854:	d503201f 	nop
    44001858:	d65f03c0 	ret

000000004400185c <el0t_64_fiq>:
    4400185c:	d503201f 	nop
    44001860:	d65f03c0 	ret

0000000044001864 <el0t_64_error>:
    44001864:	d503201f 	nop
    44001868:	d65f03c0 	ret

000000004400186c <el0t_32_sync>:
    4400186c:	d503201f 	nop
    44001870:	d65f03c0 	ret

0000000044001874 <el0t_32_irq>:
    44001874:	d503201f 	nop
    44001878:	d65f03c0 	ret

000000004400187c <el0t_32_fiq>:
    4400187c:	d503201f 	nop
    44001880:	d65f03c0 	ret

0000000044001884 <el0t_32_error>:
    44001884:	d503201f 	nop
    44001888:	d65f03c0 	ret

000000004400188c <pl011_putc>:
    4400188c:	a9be7bfd 	stp	x29, x30, [sp, #-32]!
    44001890:	910003fd 	mov	x29, sp
    44001894:	39007fe0 	strb	w0, [sp, #31]
    44001898:	f00000c0 	adrp	x0, 4401c000 <__GNU_EH_FRAME_HDR+0x238>
    4400189c:	913b0000 	add	x0, x0, #0xec0
    440018a0:	f9400000 	ldr	x0, [x0]
    440018a4:	39407fe1 	ldrb	w1, [sp, #31]
    440018a8:	39000001 	strb	w1, [x0]
    440018ac:	94000060 	bl	44001a2c <pl011_wait_tx>
    440018b0:	d503201f 	nop
    440018b4:	a8c27bfd 	ldp	x29, x30, [sp], #32
    440018b8:	d65f03c0 	ret

00000000440018bc <pl011_puts>:
    440018bc:	a9bd7bfd 	stp	x29, x30, [sp, #-48]!
    440018c0:	910003fd 	mov	x29, sp
    440018c4:	f9000fe0 	str	x0, [sp, #24]
    440018c8:	b9002fff 	str	wzr, [sp, #44]
    440018cc:	14000009 	b	440018f0 <pl011_puts+0x34>
    440018d0:	b9802fe0 	ldrsw	x0, [sp, #44]
    440018d4:	f9400fe1 	ldr	x1, [sp, #24]
    440018d8:	8b000020 	add	x0, x1, x0
    440018dc:	39400000 	ldrb	w0, [x0]
    440018e0:	97ffffeb 	bl	4400188c <pl011_putc>
    440018e4:	b9402fe0 	ldr	w0, [sp, #44]
    440018e8:	11000400 	add	w0, w0, #0x1
    440018ec:	b9002fe0 	str	w0, [sp, #44]
    440018f0:	b9802fe0 	ldrsw	x0, [sp, #44]
    440018f4:	f9400fe1 	ldr	x1, [sp, #24]
    440018f8:	8b000020 	add	x0, x1, x0
    440018fc:	39400000 	ldrb	w0, [x0]
    44001900:	7100001f 	cmp	w0, #0x0
    44001904:	54fffe61 	b.ne	440018d0 <pl011_puts+0x14>  // b.any
    44001908:	d503201f 	nop
    4400190c:	d503201f 	nop
    44001910:	a8c37bfd 	ldp	x29, x30, [sp], #48
    44001914:	d65f03c0 	ret

0000000044001918 <pl011_reset>:
    44001918:	a9be7bfd 	stp	x29, x30, [sp, #-32]!
    4400191c:	910003fd 	mov	x29, sp
    44001920:	d2800600 	mov	x0, #0x30                  	// #48
    44001924:	f2a12000 	movk	x0, #0x900, lsl #16
    44001928:	79400000 	ldrh	w0, [x0]
    4400192c:	b9001fe0 	str	w0, [sp, #28]
    44001930:	b9401fe0 	ldr	w0, [sp, #28]
    44001934:	121f7800 	and	w0, w0, #0xfffffffe
    44001938:	b9001fe0 	str	w0, [sp, #28]
    4400193c:	d2800600 	mov	x0, #0x30                  	// #48
    44001940:	f2a12000 	movk	x0, #0x900, lsl #16
    44001944:	b9401fe1 	ldr	w1, [sp, #28]
    44001948:	12003c21 	and	w1, w1, #0xffff
    4400194c:	79000001 	strh	w1, [x0]
    44001950:	94000037 	bl	44001a2c <pl011_wait_tx>
    44001954:	d2800580 	mov	x0, #0x2c                  	// #44
    44001958:	f2a12000 	movk	x0, #0x900, lsl #16
    4400195c:	b9400000 	ldr	w0, [x0]
    44001960:	b9001fe0 	str	w0, [sp, #28]
    44001964:	b9401fe0 	ldr	w0, [sp, #28]
    44001968:	121b7800 	and	w0, w0, #0xffffffef
    4400196c:	b9001fe0 	str	w0, [sp, #28]
    44001970:	d2800580 	mov	x0, #0x2c                  	// #44
    44001974:	f2a12000 	movk	x0, #0x900, lsl #16
    44001978:	b9401fe1 	ldr	w1, [sp, #28]
    4400197c:	b9000001 	str	w1, [x0]
    44001980:	d2800500 	mov	x0, #0x28                  	// #40
    44001984:	f2a12000 	movk	x0, #0x900, lsl #16
    44001988:	b900001f 	str	wzr, [x0]
    4400198c:	d2800480 	mov	x0, #0x24                  	// #36
    44001990:	f2a12000 	movk	x0, #0x900, lsl #16
    44001994:	528000c1 	mov	w1, #0x6                   	// #6
    44001998:	b9000001 	str	w1, [x0]
    4400199c:	d2800580 	mov	x0, #0x2c                  	// #44
    440019a0:	f2a12000 	movk	x0, #0x900, lsl #16
    440019a4:	b9400000 	ldr	w0, [x0]
    440019a8:	b9001fe0 	str	w0, [sp, #28]
    440019ac:	b9401fe0 	ldr	w0, [sp, #28]
    440019b0:	121c7800 	and	w0, w0, #0xfffffff7
    440019b4:	b9001fe0 	str	w0, [sp, #28]
    440019b8:	b9401fe0 	ldr	w0, [sp, #28]
    440019bc:	321b0400 	orr	w0, w0, #0x60
    440019c0:	b9001fe0 	str	w0, [sp, #28]
    440019c4:	d2800580 	mov	x0, #0x2c                  	// #44
    440019c8:	f2a12000 	movk	x0, #0x900, lsl #16
    440019cc:	b9401fe1 	ldr	w1, [sp, #28]
    440019d0:	b9000001 	str	w1, [x0]
    440019d4:	d2800700 	mov	x0, #0x38                  	// #56
    440019d8:	f2a12000 	movk	x0, #0x900, lsl #16
    440019dc:	5280ffe1 	mov	w1, #0x7ff                 	// #2047
    440019e0:	b9000001 	str	w1, [x0]
    440019e4:	d2800900 	mov	x0, #0x48                  	// #72
    440019e8:	f2a12000 	movk	x0, #0x900, lsl #16
    440019ec:	b900001f 	str	wzr, [x0]
    440019f0:	d2800600 	mov	x0, #0x30                  	// #48
    440019f4:	f2a12000 	movk	x0, #0x900, lsl #16
    440019f8:	b9400000 	ldr	w0, [x0]
    440019fc:	b9001fe0 	str	w0, [sp, #28]
    44001a00:	b9401fe1 	ldr	w1, [sp, #28]
    44001a04:	52802020 	mov	w0, #0x101                 	// #257
    44001a08:	2a000020 	orr	w0, w1, w0
    44001a0c:	b9001fe0 	str	w0, [sp, #28]
    44001a10:	d2800600 	mov	x0, #0x30                  	// #48
    44001a14:	f2a12000 	movk	x0, #0x900, lsl #16
    44001a18:	b9401fe1 	ldr	w1, [sp, #28]
    44001a1c:	b9000001 	str	w1, [x0]
    44001a20:	d503201f 	nop
    44001a24:	a8c27bfd 	ldp	x29, x30, [sp], #32
    44001a28:	d65f03c0 	ret

0000000044001a2c <pl011_wait_tx>:
    44001a2c:	f00000c0 	adrp	x0, 4401c000 <__GNU_EH_FRAME_HDR+0x238>
    44001a30:	913b0000 	add	x0, x0, #0xec0
    44001a34:	f9400000 	ldr	x0, [x0]
    44001a38:	79403000 	ldrh	w0, [x0, #24]
    44001a3c:	12003c00 	and	w0, w0, #0xffff
    44001a40:	121d0000 	and	w0, w0, #0x8
    44001a44:	7100001f 	cmp	w0, #0x0
    44001a48:	54000040 	b.eq	44001a50 <pl011_wait_tx+0x24>  // b.none
    44001a4c:	17fffff8 	b	44001a2c <pl011_wait_tx>
    44001a50:	d503201f 	nop
    44001a54:	d503201f 	nop
    44001a58:	d65f03c0 	ret

0000000044001a5c <cpu_initclock>:
    44001a5c:	a9bf7bfd 	stp	x29, x30, [sp, #-16]!
    44001a60:	910003fd 	mov	x29, sp
    44001a64:	940000b5 	bl	44001d38 <gtimer_init>
    44001a68:	d503201f 	nop
    44001a6c:	a8c17bfd 	ldp	x29, x30, [sp], #16
    44001a70:	d65f03c0 	ret

0000000044001a74 <earlycon_init>:
    44001a74:	a9bf7bfd 	stp	x29, x30, [sp, #-16]!
    44001a78:	910003fd 	mov	x29, sp
    44001a7c:	97ffffa7 	bl	44001918 <pl011_reset>
    44001a80:	d503201f 	nop
    44001a84:	a8c17bfd 	ldp	x29, x30, [sp], #16
    44001a88:	d65f03c0 	ret

0000000044001a8c <dt_cpu_init>:
    44001a8c:	a9bb7bfd 	stp	x29, x30, [sp, #-80]!
    44001a90:	910003fd 	mov	x29, sp
    44001a94:	f9000fe0 	str	x0, [sp, #24]
    44001a98:	b9004bff 	str	wzr, [sp, #72]
    44001a9c:	d00000a0 	adrp	x0, 44017000 <krhino_workqueue_create+0x6c>
    44001aa0:	911ea002 	add	x2, x0, #0x7a8
    44001aa4:	52800001 	mov	w1, #0x0                   	// #0
    44001aa8:	f9400fe0 	ldr	x0, [sp, #24]
    44001aac:	940014a7 	bl	44006d48 <fdt_subnode_offset>
    44001ab0:	b90047e0 	str	w0, [sp, #68]
    44001ab4:	d00000a0 	adrp	x0, 44017000 <krhino_workqueue_create+0x6c>
    44001ab8:	911ec000 	add	x0, x0, #0x7b0
    44001abc:	94000649 	bl	440033e0 <k_printf>
    44001ac0:	b94047e1 	ldr	w1, [sp, #68]
    44001ac4:	f9400fe0 	ldr	x0, [sp, #24]
    44001ac8:	94000d90 	bl	44005108 <fdt_size_cells>
    44001acc:	b90043e0 	str	w0, [sp, #64]
    44001ad0:	b94047e1 	ldr	w1, [sp, #68]
    44001ad4:	f9400fe0 	ldr	x0, [sp, #24]
    44001ad8:	94000d67 	bl	44005074 <fdt_address_cells>
    44001adc:	b9003fe0 	str	w0, [sp, #60]
    44001ae0:	b94047e1 	ldr	w1, [sp, #68]
    44001ae4:	f9400fe0 	ldr	x0, [sp, #24]
    44001ae8:	9400259b 	bl	4400b154 <fdt_first_subnode>
    44001aec:	b9004fe0 	str	w0, [sp, #76]
    44001af0:	14000018 	b	44001b50 <dt_cpu_init+0xc4>
    44001af4:	9100b3e0 	add	x0, sp, #0x2c
    44001af8:	aa0003e3 	mov	x3, x0
    44001afc:	d00000a0 	adrp	x0, 44017000 <krhino_workqueue_create+0x6c>
    44001b00:	911f2002 	add	x2, x0, #0x7c8
    44001b04:	b9404fe1 	ldr	w1, [sp, #76]
    44001b08:	f9400fe0 	ldr	x0, [sp, #24]
    44001b0c:	94001609 	bl	44007330 <fdt_get_property>
    44001b10:	f9001be0 	str	x0, [sp, #48]
    44001b14:	f9401be0 	ldr	x0, [sp, #48]
    44001b18:	91003002 	add	x2, x0, #0xc
    44001b1c:	d00000a0 	adrp	x0, 44017000 <krhino_workqueue_create+0x6c>
    44001b20:	911f6001 	add	x1, x0, #0x7d8
    44001b24:	aa0203e0 	mov	x0, x2
    44001b28:	94000d21 	bl	44004fac <strcmp>
    44001b2c:	7100001f 	cmp	w0, #0x0
    44001b30:	54000081 	b.ne	44001b40 <dt_cpu_init+0xb4>  // b.any
    44001b34:	b9404be0 	ldr	w0, [sp, #72]
    44001b38:	11000400 	add	w0, w0, #0x1
    44001b3c:	b9004be0 	str	w0, [sp, #72]
    44001b40:	b9404fe1 	ldr	w1, [sp, #76]
    44001b44:	f9400fe0 	ldr	x0, [sp, #24]
    44001b48:	94002599 	bl	4400b1ac <fdt_next_subnode>
    44001b4c:	b9004fe0 	str	w0, [sp, #76]
    44001b50:	b9404fe0 	ldr	w0, [sp, #76]
    44001b54:	7100001f 	cmp	w0, #0x0
    44001b58:	54fffcea 	b.ge	44001af4 <dt_cpu_init+0x68>  // b.tcont
    44001b5c:	b9404be1 	ldr	w1, [sp, #72]
    44001b60:	d00000a0 	adrp	x0, 44017000 <krhino_workqueue_create+0x6c>
    44001b64:	911f8000 	add	x0, x0, #0x7e0
    44001b68:	9400061e 	bl	440033e0 <k_printf>
    44001b6c:	b9804be0 	ldrsw	x0, [sp, #72]
    44001b70:	d37df000 	lsl	x0, x0, #3
    44001b74:	9400317b 	bl	4400e160 <krhino_mm_alloc>
    44001b78:	aa0003e1 	mov	x1, x0
    44001b7c:	f00000c0 	adrp	x0, 4401c000 <__GNU_EH_FRAME_HDR+0x238>
    44001b80:	913f6000 	add	x0, x0, #0xfd8
    44001b84:	f9000001 	str	x1, [x0]
    44001b88:	f00000c0 	adrp	x0, 4401c000 <__GNU_EH_FRAME_HDR+0x238>
    44001b8c:	913f8000 	add	x0, x0, #0xfe0
    44001b90:	b9404be1 	ldr	w1, [sp, #72]
    44001b94:	b9000001 	str	w1, [x0]
    44001b98:	d503201f 	nop
    44001b9c:	a8c57bfd 	ldp	x29, x30, [sp], #80
    44001ba0:	d65f03c0 	ret

0000000044001ba4 <irq_enable>:
    44001ba4:	d50342ff 	msr	daifclr, #0x2
    44001ba8:	d503201f 	nop
    44001bac:	d65f03c0 	ret

0000000044001bb0 <irq_disable>:
    44001bb0:	d50342df 	msr	daifset, #0x2
    44001bb4:	d503201f 	nop
    44001bb8:	d65f03c0 	ret

0000000044001bbc <walk_dt>:
    44001bbc:	a9be7bfd 	stp	x29, x30, [sp, #-32]!
    44001bc0:	910003fd 	mov	x29, sp
    44001bc4:	f00000c0 	adrp	x0, 4401c000 <__GNU_EH_FRAME_HDR+0x238>
    44001bc8:	913b8000 	add	x0, x0, #0xee0
    44001bcc:	f9400000 	ldr	x0, [x0]
    44001bd0:	52800001 	mov	w1, #0x0                   	// #0
    44001bd4:	94002560 	bl	4400b154 <fdt_first_subnode>
    44001bd8:	b9001fe0 	str	w0, [sp, #28]
    44001bdc:	f00000c0 	adrp	x0, 4401c000 <__GNU_EH_FRAME_HDR+0x238>
    44001be0:	913b8000 	add	x0, x0, #0xee0
    44001be4:	f9400000 	ldr	x0, [x0]
    44001be8:	52800001 	mov	w1, #0x0                   	// #0
    44001bec:	9400255a 	bl	4400b154 <fdt_first_subnode>
    44001bf0:	b9001fe0 	str	w0, [sp, #28]
    44001bf4:	1400001c 	b	44001c64 <walk_dt+0xa8>
    44001bf8:	f00000c0 	adrp	x0, 4401c000 <__GNU_EH_FRAME_HDR+0x238>
    44001bfc:	913b8000 	add	x0, x0, #0xee0
    44001c00:	f9400003 	ldr	x3, [x0]
    44001c04:	d00000a0 	adrp	x0, 44017000 <krhino_workqueue_create+0x6c>
    44001c08:	911fe002 	add	x2, x0, #0x7f8
    44001c0c:	b9401fe1 	ldr	w1, [sp, #28]
    44001c10:	aa0303e0 	mov	x0, x3
    44001c14:	94001904 	bl	44008024 <fdt_node_check_compatible>
    44001c18:	7100001f 	cmp	w0, #0x0
    44001c1c:	540000c1 	b.ne	44001c34 <walk_dt+0x78>  // b.any
    44001c20:	f00000c0 	adrp	x0, 4401c000 <__GNU_EH_FRAME_HDR+0x238>
    44001c24:	913b8000 	add	x0, x0, #0xee0
    44001c28:	f9400000 	ldr	x0, [x0]
    44001c2c:	b9401fe1 	ldr	w1, [sp, #28]
    44001c30:	94000290 	bl	44002670 <dt_gicv3_init>
    44001c34:	f00000c0 	adrp	x0, 4401c000 <__GNU_EH_FRAME_HDR+0x238>
    44001c38:	913b8000 	add	x0, x0, #0xee0
    44001c3c:	f9400000 	ldr	x0, [x0]
    44001c40:	b9401fe1 	ldr	w1, [sp, #28]
    44001c44:	9400255a 	bl	4400b1ac <fdt_next_subnode>
    44001c48:	b9001fe0 	str	w0, [sp, #28]
    44001c4c:	f00000c0 	adrp	x0, 4401c000 <__GNU_EH_FRAME_HDR+0x238>
    44001c50:	913b8000 	add	x0, x0, #0xee0
    44001c54:	f9400000 	ldr	x0, [x0]
    44001c58:	b9401fe1 	ldr	w1, [sp, #28]
    44001c5c:	94002554 	bl	4400b1ac <fdt_next_subnode>
    44001c60:	b9001fe0 	str	w0, [sp, #28]
    44001c64:	b9401fe0 	ldr	w0, [sp, #28]
    44001c68:	7100001f 	cmp	w0, #0x0
    44001c6c:	54fffc6a 	b.ge	44001bf8 <walk_dt+0x3c>  // b.tcont
    44001c70:	d503201f 	nop
    44001c74:	d503201f 	nop
    44001c78:	a8c27bfd 	ldp	x29, x30, [sp], #32
    44001c7c:	d65f03c0 	ret

0000000044001c80 <lostart>:
    44001c80:	a9be7bfd 	stp	x29, x30, [sp, #-32]!
    44001c84:	910003fd 	mov	x29, sp
    44001c88:	97ffff7b 	bl	44001a74 <earlycon_init>
    44001c8c:	97ffff74 	bl	44001a5c <cpu_initclock>
    44001c90:	94004704 	bl	440138a0 <krhino_init>
    44001c94:	d00000a0 	adrp	x0, 44017000 <krhino_workqueue_create+0x6c>
    44001c98:	91202000 	add	x0, x0, #0x808
    44001c9c:	940005d1 	bl	440033e0 <k_printf>
    44001ca0:	d53800a0 	mrs	x0, mpidr_el1
    44001ca4:	f9000be0 	str	x0, [sp, #16]
    44001ca8:	f9400be0 	ldr	x0, [sp, #16]
    44001cac:	d503201f 	nop
    44001cb0:	f9000fe0 	str	x0, [sp, #24]
    44001cb4:	f9400fe1 	ldr	x1, [sp, #24]
    44001cb8:	d00000a0 	adrp	x0, 44017000 <krhino_workqueue_create+0x6c>
    44001cbc:	91206000 	add	x0, x0, #0x818
    44001cc0:	940005c8 	bl	440033e0 <k_printf>
    44001cc4:	f00000c0 	adrp	x0, 4401c000 <__GNU_EH_FRAME_HDR+0x238>
    44001cc8:	913b8000 	add	x0, x0, #0xee0
    44001ccc:	f9400000 	ldr	x0, [x0]
    44001cd0:	97ffff6f 	bl	44001a8c <dt_cpu_init>
    44001cd4:	97ffffba 	bl	44001bbc <walk_dt>
    44001cd8:	52800020 	mov	w0, #0x1                   	// #1
    44001cdc:	94000042 	bl	44001de4 <gtimer_delays>
    44001ce0:	d00000a0 	adrp	x0, 44017000 <krhino_workqueue_create+0x6c>
    44001ce4:	9120e000 	add	x0, x0, #0x838
    44001ce8:	940005be 	bl	440033e0 <k_printf>
    44001cec:	17fffffb 	b	44001cd8 <lostart+0x58>

0000000044001cf0 <secondary_lostart>:
    44001cf0:	d503201f 	nop
    44001cf4:	d65f03c0 	ret

0000000044001cf8 <gtimer_get_phy_counter_value>:
    44001cf8:	d10043ff 	sub	sp, sp, #0x10
    44001cfc:	d53be034 	mrs	x20, cntpct_el0
    44001d00:	aa1403e0 	mov	x0, x20
    44001d04:	f90007e0 	str	x0, [sp, #8]
    44001d08:	f94007e0 	ldr	x0, [sp, #8]
    44001d0c:	910043ff 	add	sp, sp, #0x10
    44001d10:	d65f03c0 	ret

0000000044001d14 <gtimer_get_system_counter_freq>:
    44001d14:	d10043ff 	sub	sp, sp, #0x10
    44001d18:	d53be014 	mrs	x20, cntfrq_el0
    44001d1c:	aa1403e0 	mov	x0, x20
    44001d20:	f90007e0 	str	x0, [sp, #8]
    44001d24:	f94007e0 	ldr	x0, [sp, #8]
    44001d28:	910043ff 	add	sp, sp, #0x10
    44001d2c:	d65f03c0 	ret

0000000044001d30 <gtimer_enable_interrupt>:
    44001d30:	d503201f 	nop
    44001d34:	d65f03c0 	ret

0000000044001d38 <gtimer_init>:
    44001d38:	a9bf7bfd 	stp	x29, x30, [sp, #-16]!
    44001d3c:	910003fd 	mov	x29, sp
    44001d40:	d2800020 	mov	x0, #0x1                   	// #1
    44001d44:	d51be220 	msr	cntp_ctl_el0, x0
    44001d48:	52800020 	mov	w0, #0x1                   	// #1
    44001d4c:	d51be200 	msr	cntp_tval_el0, x0
    44001d50:	97fffff1 	bl	44001d14 <gtimer_get_system_counter_freq>
    44001d54:	aa0003e1 	mov	x1, x0
    44001d58:	f00000c0 	adrp	x0, 4401c000 <__GNU_EH_FRAME_HDR+0x238>
    44001d5c:	913f0000 	add	x0, x0, #0xfc0
    44001d60:	f9000001 	str	x1, [x0]
    44001d64:	d503201f 	nop
    44001d68:	a8c17bfd 	ldp	x29, x30, [sp], #16
    44001d6c:	d65f03c0 	ret

0000000044001d70 <gtimer_delayms>:
    44001d70:	a9bd7bfd 	stp	x29, x30, [sp, #-48]!
    44001d74:	910003fd 	mov	x29, sp
    44001d78:	b9001fe0 	str	w0, [sp, #28]
    44001d7c:	97ffffdf 	bl	44001cf8 <gtimer_get_phy_counter_value>
    44001d80:	f90017e0 	str	x0, [sp, #40]
    44001d84:	97ffffdd 	bl	44001cf8 <gtimer_get_phy_counter_value>
    44001d88:	f90013e0 	str	x0, [sp, #32]
    44001d8c:	b9801fe1 	ldrsw	x1, [sp, #28]
    44001d90:	f00000c0 	adrp	x0, 4401c000 <__GNU_EH_FRAME_HDR+0x238>
    44001d94:	913f0000 	add	x0, x0, #0xfc0
    44001d98:	f9400000 	ldr	x0, [x0]
    44001d9c:	d343fc02 	lsr	x2, x0, #3
    44001da0:	d29ef9e0 	mov	x0, #0xf7cf                	// #63439
    44001da4:	f2bc6a60 	movk	x0, #0xe353, lsl #16
    44001da8:	f2d374a0 	movk	x0, #0x9ba5, lsl #32
    44001dac:	f2e41880 	movk	x0, #0x20c4, lsl #48
    44001db0:	9bc07c40 	umulh	x0, x2, x0
    44001db4:	d344fc00 	lsr	x0, x0, #4
    44001db8:	9b007c21 	mul	x1, x1, x0
    44001dbc:	f94017e0 	ldr	x0, [sp, #40]
    44001dc0:	8b000020 	add	x0, x1, x0
    44001dc4:	f94013e1 	ldr	x1, [sp, #32]
    44001dc8:	eb00003f 	cmp	x1, x0
    44001dcc:	54000042 	b.cs	44001dd4 <gtimer_delayms+0x64>  // b.hs, b.nlast
    44001dd0:	17ffffed 	b	44001d84 <gtimer_delayms+0x14>
    44001dd4:	d503201f 	nop
    44001dd8:	d503201f 	nop
    44001ddc:	a8c37bfd 	ldp	x29, x30, [sp], #48
    44001de0:	d65f03c0 	ret

0000000044001de4 <gtimer_delays>:
    44001de4:	a9be7bfd 	stp	x29, x30, [sp, #-32]!
    44001de8:	910003fd 	mov	x29, sp
    44001dec:	b9001fe0 	str	w0, [sp, #28]
    44001df0:	b9401fe1 	ldr	w1, [sp, #28]
    44001df4:	52807d00 	mov	w0, #0x3e8                 	// #1000
    44001df8:	1b007c20 	mul	w0, w1, w0
    44001dfc:	97ffffdd 	bl	44001d70 <gtimer_delayms>
    44001e00:	d503201f 	nop
    44001e04:	a8c27bfd 	ldp	x29, x30, [sp], #32
    44001e08:	d65f03c0 	ret

0000000044001e0c <cpu_cur_get>:
    44001e0c:	52800000 	mov	w0, #0x0                   	// #0
    44001e10:	d65f03c0 	ret

0000000044001e14 <__cpu_task_switch>:
    44001e14:	a9be7bfd 	stp	x29, x30, [sp, #-32]!
    44001e18:	910003fd 	mov	x29, sp
    44001e1c:	f9000fe0 	str	x0, [sp, #24]
    44001e20:	f9000be1 	str	x1, [sp, #16]
    44001e24:	f9400be1 	ldr	x1, [sp, #16]
    44001e28:	f9400fe0 	ldr	x0, [sp, #24]
    44001e2c:	97fffe64 	bl	440017bc <cpu_switch_to>
    44001e30:	d503201f 	nop
    44001e34:	a8c27bfd 	ldp	x29, x30, [sp], #32
    44001e38:	d65f03c0 	ret

0000000044001e3c <cpu_task_switch>:
    44001e3c:	a9be7bfd 	stp	x29, x30, [sp, #-32]!
    44001e40:	910003fd 	mov	x29, sp
    44001e44:	97fffff2 	bl	44001e0c <cpu_cur_get>
    44001e48:	39007fe0 	strb	w0, [sp, #31]
    44001e4c:	39407fe1 	ldrb	w1, [sp, #31]
    44001e50:	900000e0 	adrp	x0, 4401d000 <g_ready_queue+0x8>
    44001e54:	91084000 	add	x0, x0, #0x210
    44001e58:	93407c21 	sxtw	x1, w1
    44001e5c:	f8617802 	ldr	x2, [x0, x1, lsl #3]
    44001e60:	39407fe1 	ldrb	w1, [sp, #31]
    44001e64:	900000e0 	adrp	x0, 4401d000 <g_ready_queue+0x8>
    44001e68:	91082000 	add	x0, x0, #0x208
    44001e6c:	93407c21 	sxtw	x1, w1
    44001e70:	f8617800 	ldr	x0, [x0, x1, lsl #3]
    44001e74:	aa0003e1 	mov	x1, x0
    44001e78:	aa0203e0 	mov	x0, x2
    44001e7c:	97ffffe6 	bl	44001e14 <__cpu_task_switch>
    44001e80:	d503201f 	nop
    44001e84:	a8c27bfd 	ldp	x29, x30, [sp], #32
    44001e88:	d65f03c0 	ret

0000000044001e8c <cpu_task_stack_init>:
    44001e8c:	d100c3ff 	sub	sp, sp, #0x30
    44001e90:	f9000fe0 	str	x0, [sp, #24]
    44001e94:	f9000be1 	str	x1, [sp, #16]
    44001e98:	f90007e2 	str	x2, [sp, #8]
    44001e9c:	f90003e3 	str	x3, [sp]
    44001ea0:	f9400be0 	ldr	x0, [sp, #16]
    44001ea4:	d37ef400 	lsl	x0, x0, #2
    44001ea8:	f9400fe1 	ldr	x1, [sp, #24]
    44001eac:	8b000020 	add	x0, x1, x0
    44001eb0:	b9002fe0 	str	w0, [sp, #44]
    44001eb4:	b9402fe0 	ldr	w0, [sp, #44]
    44001eb8:	121d7000 	and	w0, w0, #0xfffffff8
    44001ebc:	b9002fe0 	str	w0, [sp, #44]
    44001ec0:	b9402fe0 	ldr	w0, [sp, #44]
    44001ec4:	f90013e0 	str	x0, [sp, #32]
    44001ec8:	f94013e0 	ldr	x0, [sp, #32]
    44001ecc:	d1001000 	sub	x0, x0, #0x4
    44001ed0:	f90013e0 	str	x0, [sp, #32]
    44001ed4:	f94013e0 	ldr	x0, [sp, #32]
    44001ed8:	52a02001 	mov	w1, #0x1000000             	// #16777216
    44001edc:	b9000001 	str	w1, [x0]
    44001ee0:	f94003e1 	ldr	x1, [sp]
    44001ee4:	f94013e0 	ldr	x0, [sp, #32]
    44001ee8:	d1001000 	sub	x0, x0, #0x4
    44001eec:	f90013e0 	str	x0, [sp, #32]
    44001ef0:	f94013e0 	ldr	x0, [sp, #32]
    44001ef4:	b9000001 	str	w1, [x0]
    44001ef8:	900000a0 	adrp	x0, 44015000 <task_mutex_free+0x38>
    44001efc:	9127b001 	add	x1, x0, #0x9ec
    44001f00:	f94013e0 	ldr	x0, [sp, #32]
    44001f04:	d1001000 	sub	x0, x0, #0x4
    44001f08:	f90013e0 	str	x0, [sp, #32]
    44001f0c:	f94013e0 	ldr	x0, [sp, #32]
    44001f10:	b9000001 	str	w1, [x0]
    44001f14:	f94013e0 	ldr	x0, [sp, #32]
    44001f18:	d1001000 	sub	x0, x0, #0x4
    44001f1c:	f90013e0 	str	x0, [sp, #32]
    44001f20:	f94013e0 	ldr	x0, [sp, #32]
    44001f24:	52824241 	mov	w1, #0x1212                	// #4626
    44001f28:	72a24241 	movk	w1, #0x1212, lsl #16
    44001f2c:	b9000001 	str	w1, [x0]
    44001f30:	f94013e0 	ldr	x0, [sp, #32]
    44001f34:	d1001000 	sub	x0, x0, #0x4
    44001f38:	f90013e0 	str	x0, [sp, #32]
    44001f3c:	f94013e0 	ldr	x0, [sp, #32]
    44001f40:	3200c7e1 	mov	w1, #0x3030303             	// #50529027
    44001f44:	b9000001 	str	w1, [x0]
    44001f48:	f94013e0 	ldr	x0, [sp, #32]
    44001f4c:	d1001000 	sub	x0, x0, #0x4
    44001f50:	f90013e0 	str	x0, [sp, #32]
    44001f54:	f94013e0 	ldr	x0, [sp, #32]
    44001f58:	3207c3e1 	mov	w1, #0x2020202             	// #33686018
    44001f5c:	b9000001 	str	w1, [x0]
    44001f60:	f94013e0 	ldr	x0, [sp, #32]
    44001f64:	d1001000 	sub	x0, x0, #0x4
    44001f68:	f90013e0 	str	x0, [sp, #32]
    44001f6c:	f94013e0 	ldr	x0, [sp, #32]
    44001f70:	3200c3e1 	mov	w1, #0x1010101             	// #16843009
    44001f74:	b9000001 	str	w1, [x0]
    44001f78:	f94007e1 	ldr	x1, [sp, #8]
    44001f7c:	f94013e0 	ldr	x0, [sp, #32]
    44001f80:	d1001000 	sub	x0, x0, #0x4
    44001f84:	f90013e0 	str	x0, [sp, #32]
    44001f88:	f94013e0 	ldr	x0, [sp, #32]
    44001f8c:	b9000001 	str	w1, [x0]
    44001f90:	f94013e0 	ldr	x0, [sp, #32]
    44001f94:	d1001000 	sub	x0, x0, #0x4
    44001f98:	f90013e0 	str	x0, [sp, #32]
    44001f9c:	f94013e0 	ldr	x0, [sp, #32]
    44001fa0:	12800041 	mov	w1, #0xfffffffd            	// #-3
    44001fa4:	b9000001 	str	w1, [x0]
    44001fa8:	f94013e0 	ldr	x0, [sp, #32]
    44001fac:	d1001000 	sub	x0, x0, #0x4
    44001fb0:	f90013e0 	str	x0, [sp, #32]
    44001fb4:	f94013e0 	ldr	x0, [sp, #32]
    44001fb8:	3200e3e1 	mov	w1, #0x11111111            	// #286331153
    44001fbc:	b9000001 	str	w1, [x0]
    44001fc0:	f94013e0 	ldr	x0, [sp, #32]
    44001fc4:	d1001000 	sub	x0, x0, #0x4
    44001fc8:	f90013e0 	str	x0, [sp, #32]
    44001fcc:	f94013e0 	ldr	x0, [sp, #32]
    44001fd0:	3204c3e1 	mov	w1, #0x10101010            	// #269488144
    44001fd4:	b9000001 	str	w1, [x0]
    44001fd8:	f94013e0 	ldr	x0, [sp, #32]
    44001fdc:	d1001000 	sub	x0, x0, #0x4
    44001fe0:	f90013e0 	str	x0, [sp, #32]
    44001fe4:	f94013e0 	ldr	x0, [sp, #32]
    44001fe8:	52812121 	mov	w1, #0x909                 	// #2313
    44001fec:	72a12121 	movk	w1, #0x909, lsl #16
    44001ff0:	b9000001 	str	w1, [x0]
    44001ff4:	f94013e0 	ldr	x0, [sp, #32]
    44001ff8:	d1001000 	sub	x0, x0, #0x4
    44001ffc:	f90013e0 	str	x0, [sp, #32]
    44002000:	f94013e0 	ldr	x0, [sp, #32]
    44002004:	3205c3e1 	mov	w1, #0x8080808             	// #134744072
    44002008:	b9000001 	str	w1, [x0]
    4400200c:	f94013e0 	ldr	x0, [sp, #32]
    44002010:	d1001000 	sub	x0, x0, #0x4
    44002014:	f90013e0 	str	x0, [sp, #32]
    44002018:	f94013e0 	ldr	x0, [sp, #32]
    4400201c:	3200cbe1 	mov	w1, #0x7070707             	// #117901063
    44002020:	b9000001 	str	w1, [x0]
    44002024:	f94013e0 	ldr	x0, [sp, #32]
    44002028:	d1001000 	sub	x0, x0, #0x4
    4400202c:	f90013e0 	str	x0, [sp, #32]
    44002030:	f94013e0 	ldr	x0, [sp, #32]
    44002034:	3207c7e1 	mov	w1, #0x6060606             	// #101058054
    44002038:	b9000001 	str	w1, [x0]
    4400203c:	f94013e0 	ldr	x0, [sp, #32]
    44002040:	d1001000 	sub	x0, x0, #0x4
    44002044:	f90013e0 	str	x0, [sp, #32]
    44002048:	f94013e0 	ldr	x0, [sp, #32]
    4400204c:	5280a0a1 	mov	w1, #0x505                 	// #1285
    44002050:	72a0a0a1 	movk	w1, #0x505, lsl #16
    44002054:	b9000001 	str	w1, [x0]
    44002058:	f94013e0 	ldr	x0, [sp, #32]
    4400205c:	d1001000 	sub	x0, x0, #0x4
    44002060:	f90013e0 	str	x0, [sp, #32]
    44002064:	f94013e0 	ldr	x0, [sp, #32]
    44002068:	3206c3e1 	mov	w1, #0x4040404             	// #67372036
    4400206c:	b9000001 	str	w1, [x0]
    44002070:	f94013e0 	ldr	x0, [sp, #32]
    44002074:	9100c3ff 	add	sp, sp, #0x30
    44002078:	d65f03c0 	ret

000000004400207c <cpu_cur_get>:
    4400207c:	52800000 	mov	w0, #0x0                   	// #0
    44002080:	d65f03c0 	ret

0000000044002084 <fdt32_to_cpu>:
    44002084:	d10043ff 	sub	sp, sp, #0x10
    44002088:	b9000fe0 	str	w0, [sp, #12]
    4400208c:	910033e0 	add	x0, sp, #0xc
    44002090:	39400000 	ldrb	w0, [x0]
    44002094:	53081c01 	lsl	w1, w0, #24
    44002098:	910033e0 	add	x0, sp, #0xc
    4400209c:	91000400 	add	x0, x0, #0x1
    440020a0:	39400000 	ldrb	w0, [x0]
    440020a4:	53103c00 	lsl	w0, w0, #16
    440020a8:	2a000021 	orr	w1, w1, w0
    440020ac:	910033e0 	add	x0, sp, #0xc
    440020b0:	91000800 	add	x0, x0, #0x2
    440020b4:	39400000 	ldrb	w0, [x0]
    440020b8:	53185c00 	lsl	w0, w0, #8
    440020bc:	2a000021 	orr	w1, w1, w0
    440020c0:	910033e0 	add	x0, sp, #0xc
    440020c4:	91000c00 	add	x0, x0, #0x3
    440020c8:	39400000 	ldrb	w0, [x0]
    440020cc:	2a000020 	orr	w0, w1, w0
    440020d0:	910043ff 	add	sp, sp, #0x10
    440020d4:	d65f03c0 	ret

00000000440020d8 <__gic_get_rdist>:
    440020d8:	a9be7bfd 	stp	x29, x30, [sp, #-32]!
    440020dc:	910003fd 	mov	x29, sp
    440020e0:	f9000bf3 	str	x19, [sp, #16]
    440020e4:	d00000c0 	adrp	x0, 4401c000 <__GNU_EH_FRAME_HDR+0x238>
    440020e8:	913f6000 	add	x0, x0, #0xfd8
    440020ec:	f9400013 	ldr	x19, [x0]
    440020f0:	97ffffe3 	bl	4400207c <cpu_cur_get>
    440020f4:	12001c00 	and	w0, w0, #0xff
    440020f8:	92401c00 	and	x0, x0, #0xff
    440020fc:	d37df000 	lsl	x0, x0, #3
    44002100:	8b000260 	add	x0, x19, x0
    44002104:	f9400000 	ldr	x0, [x0]
    44002108:	f9400bf3 	ldr	x19, [sp, #16]
    4400210c:	a8c27bfd 	ldp	x29, x30, [sp], #32
    44002110:	d65f03c0 	ret

0000000044002114 <__gic_wait_rwp>:
    44002114:	a9bc7bfd 	stp	x29, x30, [sp, #-64]!
    44002118:	910003fd 	mov	x29, sp
    4400211c:	b9001fe0 	str	w0, [sp, #28]
    44002120:	b9401fe0 	ldr	w0, [sp, #28]
    44002124:	71007c1f 	cmp	w0, #0x1f
    44002128:	540000c8 	b.hi	44002140 <__gic_wait_rwp+0x2c>  // b.pmore
    4400212c:	97ffffeb 	bl	440020d8 <__gic_get_rdist>
    44002130:	f9001be0 	str	x0, [sp, #48]
    44002134:	52800100 	mov	w0, #0x8                   	// #8
    44002138:	b9003fe0 	str	w0, [sp, #60]
    4400213c:	14000007 	b	44002158 <__gic_wait_rwp+0x44>
    44002140:	d00000c0 	adrp	x0, 4401c000 <__GNU_EH_FRAME_HDR+0x238>
    44002144:	913f2000 	add	x0, x0, #0xfc8
    44002148:	f9400000 	ldr	x0, [x0]
    4400214c:	f9001be0 	str	x0, [sp, #48]
    44002150:	52b00000 	mov	w0, #0x80000000            	// #-2147483648
    44002154:	b9003fe0 	str	w0, [sp, #60]
    44002158:	d503201f 	nop
    4400215c:	f9401be0 	ldr	x0, [sp, #48]
    44002160:	b9400000 	ldr	w0, [x0]
    44002164:	b9002fe0 	str	w0, [sp, #44]
    44002168:	d5033fbf 	dmb	sy
    4400216c:	b9402fe1 	ldr	w1, [sp, #44]
    44002170:	b9403fe0 	ldr	w0, [sp, #60]
    44002174:	0a000020 	and	w0, w1, w0
    44002178:	7100001f 	cmp	w0, #0x0
    4400217c:	54ffff01 	b.ne	4400215c <__gic_wait_rwp+0x48>  // b.any
    44002180:	52800000 	mov	w0, #0x0                   	// #0
    44002184:	a8c47bfd 	ldp	x29, x30, [sp], #64
    44002188:	d65f03c0 	ret

000000004400218c <__gicv3_rdist_enable>:
    4400218c:	d100c3ff 	sub	sp, sp, #0x30
    44002190:	f90007e0 	str	x0, [sp, #8]
    44002194:	f94007e0 	ldr	x0, [sp, #8]
    44002198:	91005000 	add	x0, x0, #0x14
    4400219c:	b9400000 	ldr	w0, [x0]
    440021a0:	b9002fe0 	str	w0, [sp, #44]
    440021a4:	d5033fbf 	dmb	sy
    440021a8:	b9402fe0 	ldr	w0, [sp, #44]
    440021ac:	121e0000 	and	w0, w0, #0x4
    440021b0:	7100001f 	cmp	w0, #0x0
    440021b4:	540003c0 	b.eq	4400222c <__gicv3_rdist_enable+0xa0>  // b.none
    440021b8:	f94007e0 	ldr	x0, [sp, #8]
    440021bc:	91005000 	add	x0, x0, #0x14
    440021c0:	f90013e0 	str	x0, [sp, #32]
    440021c4:	52800020 	mov	w0, #0x1                   	// #1
    440021c8:	b9001fe0 	str	w0, [sp, #28]
    440021cc:	f94013e0 	ldr	x0, [sp, #32]
    440021d0:	b9400000 	ldr	w0, [x0]
    440021d4:	b9001be0 	str	w0, [sp, #24]
    440021d8:	b9401fe0 	ldr	w0, [sp, #28]
    440021dc:	52800021 	mov	w1, #0x1                   	// #1
    440021e0:	1ac02020 	lsl	w0, w1, w0
    440021e4:	2a2003e0 	mvn	w0, w0
    440021e8:	2a0003e2 	mov	w2, w0
    440021ec:	f94013e0 	ldr	x0, [sp, #32]
    440021f0:	b9401be1 	ldr	w1, [sp, #24]
    440021f4:	0a010041 	and	w1, w2, w1
    440021f8:	b9000001 	str	w1, [x0]
    440021fc:	d503201f 	nop
    44002200:	d503201f 	nop
    44002204:	f94007e0 	ldr	x0, [sp, #8]
    44002208:	91005000 	add	x0, x0, #0x14
    4400220c:	b9400000 	ldr	w0, [x0]
    44002210:	b9002be0 	str	w0, [sp, #40]
    44002214:	d5033fbf 	dmb	sy
    44002218:	b9402be0 	ldr	w0, [sp, #40]
    4400221c:	121e0000 	and	w0, w0, #0x4
    44002220:	7100001f 	cmp	w0, #0x0
    44002224:	54ffff01 	b.ne	44002204 <__gicv3_rdist_enable+0x78>  // b.any
    44002228:	14000002 	b	44002230 <__gicv3_rdist_enable+0xa4>
    4400222c:	d503201f 	nop
    44002230:	9100c3ff 	add	sp, sp, #0x30
    44002234:	d65f03c0 	ret

0000000044002238 <__gicv3_dist_init>:
    44002238:	a9bb7bfd 	stp	x29, x30, [sp, #-80]!
    4400223c:	910003fd 	mov	x29, sp
    44002240:	d00000c0 	adrp	x0, 4401c000 <__GNU_EH_FRAME_HDR+0x238>
    44002244:	913f2000 	add	x0, x0, #0xfc8
    44002248:	f9400000 	ldr	x0, [x0]
    4400224c:	91001000 	add	x0, x0, #0x4
    44002250:	b9400000 	ldr	w0, [x0]
    44002254:	b9004be0 	str	w0, [sp, #72]
    44002258:	d5033fbf 	dmb	sy
    4400225c:	b9404be0 	ldr	w0, [sp, #72]
    44002260:	b90047e0 	str	w0, [sp, #68]
    44002264:	b94047e0 	ldr	w0, [sp, #68]
    44002268:	12001000 	and	w0, w0, #0x1f
    4400226c:	b90043e0 	str	w0, [sp, #64]
    44002270:	b94043e0 	ldr	w0, [sp, #64]
    44002274:	11000400 	add	w0, w0, #0x1
    44002278:	531b6800 	lsl	w0, w0, #5
    4400227c:	b90043e0 	str	w0, [sp, #64]
    44002280:	b9003fff 	str	wzr, [sp, #60]
    44002284:	d5033fbf 	dmb	sy
    44002288:	d00000c0 	adrp	x0, 4401c000 <__GNU_EH_FRAME_HDR+0x238>
    4400228c:	913f2000 	add	x0, x0, #0xfc8
    44002290:	f9400000 	ldr	x0, [x0]
    44002294:	aa0003e1 	mov	x1, x0
    44002298:	b9403fe0 	ldr	w0, [sp, #60]
    4400229c:	b9000020 	str	w0, [x1]
    440022a0:	52800400 	mov	w0, #0x20                  	// #32
    440022a4:	97ffff9c 	bl	44002114 <__gic_wait_rwp>
    440022a8:	52800400 	mov	w0, #0x20                  	// #32
    440022ac:	b9004fe0 	str	w0, [sp, #76]
    440022b0:	1400003e 	b	440023a8 <__gicv3_dist_init+0x170>
    440022b4:	b9404fe0 	ldr	w0, [sp, #76]
    440022b8:	53057c00 	lsr	w0, w0, #5
    440022bc:	b9003be0 	str	w0, [sp, #56]
    440022c0:	12800000 	mov	w0, #0xffffffff            	// #-1
    440022c4:	b9002fe0 	str	w0, [sp, #44]
    440022c8:	d5033fbf 	dmb	sy
    440022cc:	b9403be0 	ldr	w0, [sp, #56]
    440022d0:	531e7400 	lsl	w0, w0, #2
    440022d4:	2a0003e1 	mov	w1, w0
    440022d8:	d00000c0 	adrp	x0, 4401c000 <__GNU_EH_FRAME_HDR+0x238>
    440022dc:	913f2000 	add	x0, x0, #0xfc8
    440022e0:	f9400000 	ldr	x0, [x0]
    440022e4:	8b000020 	add	x0, x1, x0
    440022e8:	91060000 	add	x0, x0, #0x180
    440022ec:	aa0003e1 	mov	x1, x0
    440022f0:	b9402fe0 	ldr	w0, [sp, #44]
    440022f4:	b9000020 	str	w0, [x1]
    440022f8:	12800000 	mov	w0, #0xffffffff            	// #-1
    440022fc:	b9002be0 	str	w0, [sp, #40]
    44002300:	d5033fbf 	dmb	sy
    44002304:	b9403be0 	ldr	w0, [sp, #56]
    44002308:	531e7400 	lsl	w0, w0, #2
    4400230c:	2a0003e1 	mov	w1, w0
    44002310:	d00000c0 	adrp	x0, 4401c000 <__GNU_EH_FRAME_HDR+0x238>
    44002314:	913f2000 	add	x0, x0, #0xfc8
    44002318:	f9400000 	ldr	x0, [x0]
    4400231c:	8b000020 	add	x0, x1, x0
    44002320:	910a0000 	add	x0, x0, #0x280
    44002324:	aa0003e1 	mov	x1, x0
    44002328:	b9402be0 	ldr	w0, [sp, #40]
    4400232c:	b9000020 	str	w0, [x1]
    44002330:	b90027ff 	str	wzr, [sp, #36]
    44002334:	d5033fbf 	dmb	sy
    44002338:	b9403be0 	ldr	w0, [sp, #56]
    4400233c:	531e7400 	lsl	w0, w0, #2
    44002340:	2a0003e1 	mov	w1, w0
    44002344:	d00000c0 	adrp	x0, 4401c000 <__GNU_EH_FRAME_HDR+0x238>
    44002348:	913f2000 	add	x0, x0, #0xfc8
    4400234c:	f9400000 	ldr	x0, [x0]
    44002350:	8b000020 	add	x0, x1, x0
    44002354:	91020000 	add	x0, x0, #0x80
    44002358:	aa0003e1 	mov	x1, x0
    4400235c:	b94027e0 	ldr	w0, [sp, #36]
    44002360:	b9000020 	str	w0, [x1]
    44002364:	12800000 	mov	w0, #0xffffffff            	// #-1
    44002368:	b90023e0 	str	w0, [sp, #32]
    4400236c:	d5033fbf 	dmb	sy
    44002370:	b9403be0 	ldr	w0, [sp, #56]
    44002374:	531e7400 	lsl	w0, w0, #2
    44002378:	2a0003e1 	mov	w1, w0
    4400237c:	d00000c0 	adrp	x0, 4401c000 <__GNU_EH_FRAME_HDR+0x238>
    44002380:	913f2000 	add	x0, x0, #0xfc8
    44002384:	f9400000 	ldr	x0, [x0]
    44002388:	8b000020 	add	x0, x1, x0
    4400238c:	91340000 	add	x0, x0, #0xd00
    44002390:	aa0003e1 	mov	x1, x0
    44002394:	b94023e0 	ldr	w0, [sp, #32]
    44002398:	b9000020 	str	w0, [x1]
    4400239c:	b9404fe0 	ldr	w0, [sp, #76]
    440023a0:	11008000 	add	w0, w0, #0x20
    440023a4:	b9004fe0 	str	w0, [sp, #76]
    440023a8:	b9404fe1 	ldr	w1, [sp, #76]
    440023ac:	b94043e0 	ldr	w0, [sp, #64]
    440023b0:	6b00003f 	cmp	w1, w0
    440023b4:	54fff803 	b.cc	440022b4 <__gicv3_dist_init+0x7c>  // b.lo, b.ul, b.last
    440023b8:	52800400 	mov	w0, #0x20                  	// #32
    440023bc:	97ffff56 	bl	44002114 <__gic_wait_rwp>
    440023c0:	52800400 	mov	w0, #0x20                  	// #32
    440023c4:	b9004fe0 	str	w0, [sp, #76]
    440023c8:	14000011 	b	4400240c <__gicv3_dist_init+0x1d4>
    440023cc:	52941400 	mov	w0, #0xa0a0                	// #41120
    440023d0:	72b41400 	movk	w0, #0xa0a0, lsl #16
    440023d4:	b90033e0 	str	w0, [sp, #48]
    440023d8:	d5033fbf 	dmb	sy
    440023dc:	b9404fe1 	ldr	w1, [sp, #76]
    440023e0:	d00000c0 	adrp	x0, 4401c000 <__GNU_EH_FRAME_HDR+0x238>
    440023e4:	913f2000 	add	x0, x0, #0xfc8
    440023e8:	f9400000 	ldr	x0, [x0]
    440023ec:	8b000020 	add	x0, x1, x0
    440023f0:	91100000 	add	x0, x0, #0x400
    440023f4:	aa0003e1 	mov	x1, x0
    440023f8:	b94033e0 	ldr	w0, [sp, #48]
    440023fc:	b9000020 	str	w0, [x1]
    44002400:	b9404fe0 	ldr	w0, [sp, #76]
    44002404:	11001000 	add	w0, w0, #0x4
    44002408:	b9004fe0 	str	w0, [sp, #76]
    4400240c:	b9404fe1 	ldr	w1, [sp, #76]
    44002410:	b94043e0 	ldr	w0, [sp, #64]
    44002414:	6b00003f 	cmp	w1, w0
    44002418:	54fffda3 	b.cc	440023cc <__gicv3_dist_init+0x194>  // b.lo, b.ul, b.last
    4400241c:	52800400 	mov	w0, #0x20                  	// #32
    44002420:	b9004fe0 	str	w0, [sp, #76]
    44002424:	14000014 	b	44002474 <__gicv3_dist_init+0x23c>
    44002428:	b9404fe0 	ldr	w0, [sp, #76]
    4400242c:	53047c00 	lsr	w0, w0, #4
    44002430:	b9003be0 	str	w0, [sp, #56]
    44002434:	b90037ff 	str	wzr, [sp, #52]
    44002438:	d5033fbf 	dmb	sy
    4400243c:	b9403be0 	ldr	w0, [sp, #56]
    44002440:	531e7400 	lsl	w0, w0, #2
    44002444:	2a0003e1 	mov	w1, w0
    44002448:	d00000c0 	adrp	x0, 4401c000 <__GNU_EH_FRAME_HDR+0x238>
    4400244c:	913f2000 	add	x0, x0, #0xfc8
    44002450:	f9400000 	ldr	x0, [x0]
    44002454:	8b000020 	add	x0, x1, x0
    44002458:	91300000 	add	x0, x0, #0xc00
    4400245c:	aa0003e1 	mov	x1, x0
    44002460:	b94037e0 	ldr	w0, [sp, #52]
    44002464:	b9000020 	str	w0, [x1]
    44002468:	b9404fe0 	ldr	w0, [sp, #76]
    4400246c:	11004000 	add	w0, w0, #0x10
    44002470:	b9004fe0 	str	w0, [sp, #76]
    44002474:	b9404fe1 	ldr	w1, [sp, #76]
    44002478:	b94043e0 	ldr	w0, [sp, #64]
    4400247c:	6b00003f 	cmp	w1, w0
    44002480:	54fffd43 	b.cc	44002428 <__gicv3_dist_init+0x1f0>  // b.lo, b.ul, b.last
    44002484:	d00000c0 	adrp	x0, 4401c000 <__GNU_EH_FRAME_HDR+0x238>
    44002488:	913f2000 	add	x0, x0, #0xfc8
    4400248c:	f9400000 	ldr	x0, [x0]
    44002490:	f9000fe0 	str	x0, [sp, #24]
    44002494:	52800040 	mov	w0, #0x2                   	// #2
    44002498:	b90017e0 	str	w0, [sp, #20]
    4400249c:	f9400fe0 	ldr	x0, [sp, #24]
    440024a0:	b9400000 	ldr	w0, [x0]
    440024a4:	b90013e0 	str	w0, [sp, #16]
    440024a8:	b94017e0 	ldr	w0, [sp, #20]
    440024ac:	52800021 	mov	w1, #0x1                   	// #1
    440024b0:	1ac02020 	lsl	w0, w1, w0
    440024b4:	2a0003e2 	mov	w2, w0
    440024b8:	f9400fe0 	ldr	x0, [sp, #24]
    440024bc:	b94013e1 	ldr	w1, [sp, #16]
    440024c0:	2a010041 	orr	w1, w2, w1
    440024c4:	b9000001 	str	w1, [x0]
    440024c8:	d503201f 	nop
    440024cc:	d503201f 	nop
    440024d0:	a8c57bfd 	ldp	x29, x30, [sp], #80
    440024d4:	d65f03c0 	ret

00000000440024d8 <__gicv3_cpuif_init>:
    440024d8:	a9ba7bfd 	stp	x29, x30, [sp, #-96]!
    440024dc:	910003fd 	mov	x29, sp
    440024e0:	97fffefe 	bl	440020d8 <__gic_get_rdist>
    440024e4:	91404000 	add	x0, x0, #0x10, lsl #12
    440024e8:	f9002be0 	str	x0, [sp, #80]
    440024ec:	12800000 	mov	w0, #0xffffffff            	// #-1
    440024f0:	b9004fe0 	str	w0, [sp, #76]
    440024f4:	d5033fbf 	dmb	sy
    440024f8:	f9402be0 	ldr	x0, [sp, #80]
    440024fc:	91060000 	add	x0, x0, #0x180
    44002500:	aa0003e1 	mov	x1, x0
    44002504:	b9404fe0 	ldr	w0, [sp, #76]
    44002508:	b9000020 	str	w0, [x1]
    4400250c:	52800000 	mov	w0, #0x0                   	// #0
    44002510:	97ffff01 	bl	44002114 <__gic_wait_rwp>
    44002514:	12800000 	mov	w0, #0xffffffff            	// #-1
    44002518:	b9004be0 	str	w0, [sp, #72]
    4400251c:	d5033fbf 	dmb	sy
    44002520:	f9402be0 	ldr	x0, [sp, #80]
    44002524:	910a0000 	add	x0, x0, #0x280
    44002528:	aa0003e1 	mov	x1, x0
    4400252c:	b9404be0 	ldr	w0, [sp, #72]
    44002530:	b9000020 	str	w0, [x1]
    44002534:	b90047ff 	str	wzr, [sp, #68]
    44002538:	d5033fbf 	dmb	sy
    4400253c:	f9402be0 	ldr	x0, [sp, #80]
    44002540:	91020000 	add	x0, x0, #0x80
    44002544:	aa0003e1 	mov	x1, x0
    44002548:	b94047e0 	ldr	w0, [sp, #68]
    4400254c:	b9000020 	str	w0, [x1]
    44002550:	12800000 	mov	w0, #0xffffffff            	// #-1
    44002554:	b90043e0 	str	w0, [sp, #64]
    44002558:	d5033fbf 	dmb	sy
    4400255c:	f9402be0 	ldr	x0, [sp, #80]
    44002560:	91340000 	add	x0, x0, #0xd00
    44002564:	aa0003e1 	mov	x1, x0
    44002568:	b94043e0 	ldr	w0, [sp, #64]
    4400256c:	b9000020 	str	w0, [x1]
    44002570:	b9005fff 	str	wzr, [sp, #92]
    44002574:	1400000f 	b	440025b0 <__gicv3_cpuif_init+0xd8>
    44002578:	52941400 	mov	w0, #0xa0a0                	// #41120
    4400257c:	72b41400 	movk	w0, #0xa0a0, lsl #16
    44002580:	b9001fe0 	str	w0, [sp, #28]
    44002584:	d5033fbf 	dmb	sy
    44002588:	b9405fe1 	ldr	w1, [sp, #92]
    4400258c:	f9402be0 	ldr	x0, [sp, #80]
    44002590:	8b000020 	add	x0, x1, x0
    44002594:	91100000 	add	x0, x0, #0x400
    44002598:	aa0003e1 	mov	x1, x0
    4400259c:	b9401fe0 	ldr	w0, [sp, #28]
    440025a0:	b9000020 	str	w0, [x1]
    440025a4:	b9405fe0 	ldr	w0, [sp, #92]
    440025a8:	11001000 	add	w0, w0, #0x4
    440025ac:	b9005fe0 	str	w0, [sp, #92]
    440025b0:	b9405fe0 	ldr	w0, [sp, #92]
    440025b4:	71007c1f 	cmp	w0, #0x1f
    440025b8:	54fffe09 	b.ls	44002578 <__gicv3_cpuif_init+0xa0>  // b.plast
    440025bc:	b9003fff 	str	wzr, [sp, #60]
    440025c0:	d5033fbf 	dmb	sy
    440025c4:	f9402be0 	ldr	x0, [sp, #80]
    440025c8:	91301000 	add	x0, x0, #0xc04
    440025cc:	aa0003e1 	mov	x1, x0
    440025d0:	b9403fe0 	ldr	w0, [sp, #60]
    440025d4:	b9000020 	str	w0, [x1]
    440025d8:	d538cca0 	mrs	x0, s3_0_c12_c12_5
    440025dc:	f9001be0 	str	x0, [sp, #48]
    440025e0:	f9401be0 	ldr	x0, [sp, #48]
    440025e4:	b9002fe0 	str	w0, [sp, #44]
    440025e8:	b9402fe0 	ldr	w0, [sp, #44]
    440025ec:	12000000 	and	w0, w0, #0x1
    440025f0:	7100001f 	cmp	w0, #0x0
    440025f4:	540001e1 	b.ne	44002630 <__gicv3_cpuif_init+0x158>  // b.any
    440025f8:	b9402fe0 	ldr	w0, [sp, #44]
    440025fc:	32000800 	orr	w0, w0, #0x7
    44002600:	b9002fe0 	str	w0, [sp, #44]
    44002604:	b9402fe0 	ldr	w0, [sp, #44]
    44002608:	d518cca0 	msr	s3_0_c12_c12_5, x0
    4400260c:	d538cca0 	mrs	x0, s3_0_c12_c12_5
    44002610:	f90013e0 	str	x0, [sp, #32]
    44002614:	f94013e0 	ldr	x0, [sp, #32]
    44002618:	b9002fe0 	str	w0, [sp, #44]
    4400261c:	b9402fe0 	ldr	w0, [sp, #44]
    44002620:	12000000 	and	w0, w0, #0x1
    44002624:	7100001f 	cmp	w0, #0x0
    44002628:	54000041 	b.ne	44002630 <__gicv3_cpuif_init+0x158>  // b.any
    4400262c:	14000000 	b	4400262c <__gicv3_cpuif_init+0x154>
    44002630:	52801fe0 	mov	w0, #0xff                  	// #255
    44002634:	d5184600 	msr	s3_0_c4_c6_0, x0
    44002638:	52800020 	mov	w0, #0x1                   	// #1
    4400263c:	d518cce0 	msr	s3_0_c12_c12_7, x0
    44002640:	d503201f 	nop
    44002644:	a8c67bfd 	ldp	x29, x30, [sp], #96
    44002648:	d65f03c0 	ret

000000004400264c <gicv3_init>:
    4400264c:	a9bf7bfd 	stp	x29, x30, [sp, #-16]!
    44002650:	910003fd 	mov	x29, sp
    44002654:	97fffef9 	bl	44002238 <__gicv3_dist_init>
    44002658:	97fffea0 	bl	440020d8 <__gic_get_rdist>
    4400265c:	97fffecc 	bl	4400218c <__gicv3_rdist_enable>
    44002660:	97ffff9e 	bl	440024d8 <__gicv3_cpuif_init>
    44002664:	d503201f 	nop
    44002668:	a8c17bfd 	ldp	x29, x30, [sp], #16
    4400266c:	d65f03c0 	ret

0000000044002670 <dt_gicv3_init>:
    44002670:	a9b97bfd 	stp	x29, x30, [sp, #-112]!
    44002674:	910003fd 	mov	x29, sp
    44002678:	a90153f3 	stp	x19, x20, [sp, #16]
    4400267c:	f90013f5 	str	x21, [sp, #32]
    44002680:	f9001fe0 	str	x0, [sp, #56]
    44002684:	b90037e1 	str	w1, [sp, #52]
    44002688:	b94037e1 	ldr	w1, [sp, #52]
    4400268c:	f9401fe0 	ldr	x0, [sp, #56]
    44002690:	94000a9e 	bl	44005108 <fdt_size_cells>
    44002694:	b9005fe0 	str	w0, [sp, #92]
    44002698:	b94037e1 	ldr	w1, [sp, #52]
    4400269c:	f9401fe0 	ldr	x0, [sp, #56]
    440026a0:	94000a75 	bl	44005074 <fdt_address_cells>
    440026a4:	b9005be0 	str	w0, [sp, #88]
    440026a8:	b00000a0 	adrp	x0, 44017000 <krhino_workqueue_create+0x6c>
    440026ac:	91214000 	add	x0, x0, #0x850
    440026b0:	9400034c 	bl	440033e0 <k_printf>
    440026b4:	d00000c0 	adrp	x0, 4401c000 <__GNU_EH_FRAME_HDR+0x238>
    440026b8:	913f8000 	add	x0, x0, #0xfe0
    440026bc:	b9400000 	ldr	w0, [x0]
    440026c0:	2a0003e1 	mov	w1, w0
    440026c4:	b00000a0 	adrp	x0, 44017000 <krhino_workqueue_create+0x6c>
    440026c8:	91218000 	add	x0, x0, #0x860
    440026cc:	94000345 	bl	440033e0 <k_printf>
    440026d0:	910133e0 	add	x0, sp, #0x4c
    440026d4:	aa0003e3 	mov	x3, x0
    440026d8:	b00000a0 	adrp	x0, 44017000 <krhino_workqueue_create+0x6c>
    440026dc:	91220002 	add	x2, x0, #0x880
    440026e0:	b94037e1 	ldr	w1, [sp, #52]
    440026e4:	f9401fe0 	ldr	x0, [sp, #56]
    440026e8:	94001312 	bl	44007330 <fdt_get_property>
    440026ec:	f9002be0 	str	x0, [sp, #80]
    440026f0:	b9404fe0 	ldr	w0, [sp, #76]
    440026f4:	7100001f 	cmp	w0, #0x0
    440026f8:	540000ea 	b.ge	44002714 <dt_gicv3_init+0xa4>  // b.tcont
    440026fc:	b9404fe0 	ldr	w0, [sp, #76]
    44002700:	3100041f 	cmn	w0, #0x1
    44002704:	54000081 	b.ne	44002714 <dt_gicv3_init+0xa4>  // b.any
    44002708:	52800020 	mov	w0, #0x1                   	// #1
    4400270c:	b9006fe0 	str	w0, [sp, #108]
    44002710:	14000010 	b	44002750 <dt_gicv3_init+0xe0>
    44002714:	b9404fe0 	ldr	w0, [sp, #76]
    44002718:	7100001f 	cmp	w0, #0x0
    4400271c:	5400010a 	b.ge	4400273c <dt_gicv3_init+0xcc>  // b.tcont
    44002720:	b00000a0 	adrp	x0, 44017000 <krhino_workqueue_create+0x6c>
    44002724:	91226000 	add	x0, x0, #0x898
    44002728:	9400032e 	bl	440033e0 <k_printf>
    4400272c:	b00000a0 	adrp	x0, 44017000 <krhino_workqueue_create+0x6c>
    44002730:	9122e000 	add	x0, x0, #0x8b8
    44002734:	9400032b 	bl	440033e0 <k_printf>
    44002738:	1400007f 	b	44002934 <dt_gicv3_init+0x2c4>
    4400273c:	f9402be0 	ldr	x0, [sp, #80]
    44002740:	91003000 	add	x0, x0, #0xc
    44002744:	b9400000 	ldr	w0, [x0]
    44002748:	97fffe4f 	bl	44002084 <fdt32_to_cpu>
    4400274c:	b9006fe0 	str	w0, [sp, #108]
    44002750:	910133e0 	add	x0, sp, #0x4c
    44002754:	aa0003e3 	mov	x3, x0
    44002758:	b00000a0 	adrp	x0, 44017000 <krhino_workqueue_create+0x6c>
    4400275c:	91232002 	add	x2, x0, #0x8c8
    44002760:	b94037e1 	ldr	w1, [sp, #52]
    44002764:	f9401fe0 	ldr	x0, [sp, #56]
    44002768:	940012f2 	bl	44007330 <fdt_get_property>
    4400276c:	f9002be0 	str	x0, [sp, #80]
    44002770:	f9402be0 	ldr	x0, [sp, #80]
    44002774:	91003000 	add	x0, x0, #0xc
    44002778:	f90033e0 	str	x0, [sp, #96]
    4400277c:	b9405be0 	ldr	w0, [sp, #88]
    44002780:	7100081f 	cmp	w0, #0x2
    44002784:	540002c1 	b.ne	440027dc <dt_gicv3_init+0x16c>  // b.any
    44002788:	f94033e0 	ldr	x0, [sp, #96]
    4400278c:	91001000 	add	x0, x0, #0x4
    44002790:	b9400000 	ldr	w0, [x0]
    44002794:	97fffe3c 	bl	44002084 <fdt32_to_cpu>
    44002798:	2a0003e1 	mov	w1, w0
    4400279c:	d00000c0 	adrp	x0, 4401c000 <__GNU_EH_FRAME_HDR+0x238>
    440027a0:	913f2000 	add	x0, x0, #0xfc8
    440027a4:	f9000001 	str	x1, [x0]
    440027a8:	f94033e0 	ldr	x0, [sp, #96]
    440027ac:	b9400000 	ldr	w0, [x0]
    440027b0:	97fffe35 	bl	44002084 <fdt32_to_cpu>
    440027b4:	2a0003e0 	mov	w0, w0
    440027b8:	d3607c01 	lsl	x1, x0, #32
    440027bc:	d00000c0 	adrp	x0, 4401c000 <__GNU_EH_FRAME_HDR+0x238>
    440027c0:	913f2000 	add	x0, x0, #0xfc8
    440027c4:	f9400000 	ldr	x0, [x0]
    440027c8:	8b000021 	add	x1, x1, x0
    440027cc:	d00000c0 	adrp	x0, 4401c000 <__GNU_EH_FRAME_HDR+0x238>
    440027d0:	913f2000 	add	x0, x0, #0xfc8
    440027d4:	f9000001 	str	x1, [x0]
    440027d8:	14000005 	b	440027ec <dt_gicv3_init+0x17c>
    440027dc:	b9405be1 	ldr	w1, [sp, #88]
    440027e0:	b00000a0 	adrp	x0, 44017000 <krhino_workqueue_create+0x6c>
    440027e4:	91234000 	add	x0, x0, #0x8d0
    440027e8:	940002fe 	bl	440033e0 <k_printf>
    440027ec:	b9405fe0 	ldr	w0, [sp, #92]
    440027f0:	7100081f 	cmp	w0, #0x2
    440027f4:	540002e1 	b.ne	44002850 <dt_gicv3_init+0x1e0>  // b.any
    440027f8:	f94033e0 	ldr	x0, [sp, #96]
    440027fc:	91003000 	add	x0, x0, #0xc
    44002800:	b9400000 	ldr	w0, [x0]
    44002804:	97fffe20 	bl	44002084 <fdt32_to_cpu>
    44002808:	2a0003e1 	mov	w1, w0
    4400280c:	d00000c0 	adrp	x0, 4401c000 <__GNU_EH_FRAME_HDR+0x238>
    44002810:	913f4000 	add	x0, x0, #0xfd0
    44002814:	f9000001 	str	x1, [x0]
    44002818:	f94033e0 	ldr	x0, [sp, #96]
    4400281c:	91002000 	add	x0, x0, #0x8
    44002820:	b9400000 	ldr	w0, [x0]
    44002824:	97fffe18 	bl	44002084 <fdt32_to_cpu>
    44002828:	2a0003e0 	mov	w0, w0
    4400282c:	d3607c01 	lsl	x1, x0, #32
    44002830:	d00000c0 	adrp	x0, 4401c000 <__GNU_EH_FRAME_HDR+0x238>
    44002834:	913f2000 	add	x0, x0, #0xfc8
    44002838:	f9400000 	ldr	x0, [x0]
    4400283c:	8b000021 	add	x1, x1, x0
    44002840:	d00000c0 	adrp	x0, 4401c000 <__GNU_EH_FRAME_HDR+0x238>
    44002844:	913f2000 	add	x0, x0, #0xfc8
    44002848:	f9000001 	str	x1, [x0]
    4400284c:	14000005 	b	44002860 <dt_gicv3_init+0x1f0>
    44002850:	b9405fe1 	ldr	w1, [sp, #92]
    44002854:	b00000a0 	adrp	x0, 44017000 <krhino_workqueue_create+0x6c>
    44002858:	9123c000 	add	x0, x0, #0x8f0
    4400285c:	940002e1 	bl	440033e0 <k_printf>
    44002860:	b9405fe1 	ldr	w1, [sp, #92]
    44002864:	b9405be0 	ldr	w0, [sp, #88]
    44002868:	0b000020 	add	w0, w1, w0
    4400286c:	93407c00 	sxtw	x0, w0
    44002870:	d37ef400 	lsl	x0, x0, #2
    44002874:	f94033e1 	ldr	x1, [sp, #96]
    44002878:	8b000020 	add	x0, x1, x0
    4400287c:	f90033e0 	str	x0, [sp, #96]
    44002880:	b9406fe0 	ldr	w0, [sp, #108]
    44002884:	b9006be0 	str	w0, [sp, #104]
    44002888:	14000025 	b	4400291c <dt_gicv3_init+0x2ac>
    4400288c:	f94033e0 	ldr	x0, [sp, #96]
    44002890:	b9400000 	ldr	w0, [x0]
    44002894:	97fffdfc 	bl	44002084 <fdt32_to_cpu>
    44002898:	2a0003f3 	mov	w19, w0
    4400289c:	f94033e0 	ldr	x0, [sp, #96]
    440028a0:	91001000 	add	x0, x0, #0x4
    440028a4:	b9400000 	ldr	w0, [x0]
    440028a8:	97fffdf7 	bl	44002084 <fdt32_to_cpu>
    440028ac:	2a0003f4 	mov	w20, w0
    440028b0:	f94033e0 	ldr	x0, [sp, #96]
    440028b4:	91002000 	add	x0, x0, #0x8
    440028b8:	b9400000 	ldr	w0, [x0]
    440028bc:	97fffdf2 	bl	44002084 <fdt32_to_cpu>
    440028c0:	2a0003f5 	mov	w21, w0
    440028c4:	f94033e0 	ldr	x0, [sp, #96]
    440028c8:	91003000 	add	x0, x0, #0xc
    440028cc:	b9400000 	ldr	w0, [x0]
    440028d0:	97fffded 	bl	44002084 <fdt32_to_cpu>
    440028d4:	2a0003e4 	mov	w4, w0
    440028d8:	2a1503e3 	mov	w3, w21
    440028dc:	2a1403e2 	mov	w2, w20
    440028e0:	2a1303e1 	mov	w1, w19
    440028e4:	b00000a0 	adrp	x0, 44017000 <krhino_workqueue_create+0x6c>
    440028e8:	91244000 	add	x0, x0, #0x910
    440028ec:	940002bd 	bl	440033e0 <k_printf>
    440028f0:	b9405fe1 	ldr	w1, [sp, #92]
    440028f4:	b9405be0 	ldr	w0, [sp, #88]
    440028f8:	0b000020 	add	w0, w1, w0
    440028fc:	93407c00 	sxtw	x0, w0
    44002900:	d37ef400 	lsl	x0, x0, #2
    44002904:	f94033e1 	ldr	x1, [sp, #96]
    44002908:	8b000020 	add	x0, x1, x0
    4400290c:	f90033e0 	str	x0, [sp, #96]
    44002910:	b9406be0 	ldr	w0, [sp, #104]
    44002914:	51000400 	sub	w0, w0, #0x1
    44002918:	b9006be0 	str	w0, [sp, #104]
    4400291c:	b9406be0 	ldr	w0, [sp, #104]
    44002920:	7100001f 	cmp	w0, #0x0
    44002924:	54fffb4c 	b.gt	4400288c <dt_gicv3_init+0x21c>
    44002928:	b00000a0 	adrp	x0, 44017000 <krhino_workqueue_create+0x6c>
    4400292c:	91252000 	add	x0, x0, #0x948
    44002930:	940002ac 	bl	440033e0 <k_printf>
    44002934:	a94153f3 	ldp	x19, x20, [sp, #16]
    44002938:	f94013f5 	ldr	x21, [sp, #32]
    4400293c:	a8c77bfd 	ldp	x29, x30, [sp], #112
    44002940:	d65f03c0 	ret

0000000044002944 <memchr>:
    44002944:	d100c3ff 	sub	sp, sp, #0x30
    44002948:	f9000fe0 	str	x0, [sp, #24]
    4400294c:	b90017e1 	str	w1, [sp, #20]
    44002950:	f90007e2 	str	x2, [sp, #8]
    44002954:	f94007e0 	ldr	x0, [sp, #8]
    44002958:	f100001f 	cmp	x0, #0x0
    4400295c:	54000280 	b.eq	440029ac <memchr+0x68>  // b.none
    44002960:	f9400fe0 	ldr	x0, [sp, #24]
    44002964:	f90017e0 	str	x0, [sp, #40]
    44002968:	f94017e0 	ldr	x0, [sp, #40]
    4400296c:	91000401 	add	x1, x0, #0x1
    44002970:	f90017e1 	str	x1, [sp, #40]
    44002974:	39400001 	ldrb	w1, [x0]
    44002978:	b94017e0 	ldr	w0, [sp, #20]
    4400297c:	12001c00 	and	w0, w0, #0xff
    44002980:	6b00003f 	cmp	w1, w0
    44002984:	54000081 	b.ne	44002994 <memchr+0x50>  // b.any
    44002988:	f94017e0 	ldr	x0, [sp, #40]
    4400298c:	d1000400 	sub	x0, x0, #0x1
    44002990:	14000008 	b	440029b0 <memchr+0x6c>
    44002994:	f94007e0 	ldr	x0, [sp, #8]
    44002998:	d1000400 	sub	x0, x0, #0x1
    4400299c:	f90007e0 	str	x0, [sp, #8]
    440029a0:	f94007e0 	ldr	x0, [sp, #8]
    440029a4:	f100001f 	cmp	x0, #0x0
    440029a8:	54fffe01 	b.ne	44002968 <memchr+0x24>  // b.any
    440029ac:	d2800000 	mov	x0, #0x0                   	// #0
    440029b0:	9100c3ff 	add	sp, sp, #0x30
    440029b4:	d65f03c0 	ret

00000000440029b8 <memcmp>:
    440029b8:	d100c3ff 	sub	sp, sp, #0x30
    440029bc:	f9000fe0 	str	x0, [sp, #24]
    440029c0:	f9000be1 	str	x1, [sp, #16]
    440029c4:	f90007e2 	str	x2, [sp, #8]
    440029c8:	f94007e0 	ldr	x0, [sp, #8]
    440029cc:	f100001f 	cmp	x0, #0x0
    440029d0:	54000440 	b.eq	44002a58 <memcmp+0xa0>  // b.none
    440029d4:	f9400fe0 	ldr	x0, [sp, #24]
    440029d8:	f90017e0 	str	x0, [sp, #40]
    440029dc:	f9400be0 	ldr	x0, [sp, #16]
    440029e0:	f90013e0 	str	x0, [sp, #32]
    440029e4:	f94017e0 	ldr	x0, [sp, #40]
    440029e8:	91000401 	add	x1, x0, #0x1
    440029ec:	f90017e1 	str	x1, [sp, #40]
    440029f0:	39400001 	ldrb	w1, [x0]
    440029f4:	f94013e0 	ldr	x0, [sp, #32]
    440029f8:	91000402 	add	x2, x0, #0x1
    440029fc:	f90013e2 	str	x2, [sp, #32]
    44002a00:	39400000 	ldrb	w0, [x0]
    44002a04:	6b00003f 	cmp	w1, w0
    44002a08:	540001c0 	b.eq	44002a40 <memcmp+0x88>  // b.none
    44002a0c:	f94017e0 	ldr	x0, [sp, #40]
    44002a10:	d1000400 	sub	x0, x0, #0x1
    44002a14:	f90017e0 	str	x0, [sp, #40]
    44002a18:	f94017e0 	ldr	x0, [sp, #40]
    44002a1c:	39400000 	ldrb	w0, [x0]
    44002a20:	2a0003e1 	mov	w1, w0
    44002a24:	f94013e0 	ldr	x0, [sp, #32]
    44002a28:	d1000400 	sub	x0, x0, #0x1
    44002a2c:	f90013e0 	str	x0, [sp, #32]
    44002a30:	f94013e0 	ldr	x0, [sp, #32]
    44002a34:	39400000 	ldrb	w0, [x0]
    44002a38:	4b000020 	sub	w0, w1, w0
    44002a3c:	14000008 	b	44002a5c <memcmp+0xa4>
    44002a40:	f94007e0 	ldr	x0, [sp, #8]
    44002a44:	d1000400 	sub	x0, x0, #0x1
    44002a48:	f90007e0 	str	x0, [sp, #8]
    44002a4c:	f94007e0 	ldr	x0, [sp, #8]
    44002a50:	f100001f 	cmp	x0, #0x0
    44002a54:	54fffc81 	b.ne	440029e4 <memcmp+0x2c>  // b.any
    44002a58:	52800000 	mov	w0, #0x0                   	// #0
    44002a5c:	9100c3ff 	add	sp, sp, #0x30
    44002a60:	d65f03c0 	ret

0000000044002a64 <memcpy>:
    44002a64:	d100c3ff 	sub	sp, sp, #0x30
    44002a68:	f9000fe0 	str	x0, [sp, #24]
    44002a6c:	f9000be1 	str	x1, [sp, #16]
    44002a70:	f90007e2 	str	x2, [sp, #8]
    44002a74:	f9400fe0 	ldr	x0, [sp, #24]
    44002a78:	f90017e0 	str	x0, [sp, #40]
    44002a7c:	f9400be0 	ldr	x0, [sp, #16]
    44002a80:	f90013e0 	str	x0, [sp, #32]
    44002a84:	f94007e0 	ldr	x0, [sp, #8]
    44002a88:	f100001f 	cmp	x0, #0x0
    44002a8c:	540002a0 	b.eq	44002ae0 <memcpy+0x7c>  // b.none
    44002a90:	f94017e1 	ldr	x1, [sp, #40]
    44002a94:	f94013e0 	ldr	x0, [sp, #32]
    44002a98:	eb00003f 	cmp	x1, x0
    44002a9c:	54000220 	b.eq	44002ae0 <memcpy+0x7c>  // b.none
    44002aa0:	1400000c 	b	44002ad0 <memcpy+0x6c>
    44002aa4:	f94013e1 	ldr	x1, [sp, #32]
    44002aa8:	91000420 	add	x0, x1, #0x1
    44002aac:	f90013e0 	str	x0, [sp, #32]
    44002ab0:	f94017e0 	ldr	x0, [sp, #40]
    44002ab4:	91000402 	add	x2, x0, #0x1
    44002ab8:	f90017e2 	str	x2, [sp, #40]
    44002abc:	39400021 	ldrb	w1, [x1]
    44002ac0:	39000001 	strb	w1, [x0]
    44002ac4:	f94007e0 	ldr	x0, [sp, #8]
    44002ac8:	d1000400 	sub	x0, x0, #0x1
    44002acc:	f90007e0 	str	x0, [sp, #8]
    44002ad0:	f94007e0 	ldr	x0, [sp, #8]
    44002ad4:	f100001f 	cmp	x0, #0x0
    44002ad8:	54fffe61 	b.ne	44002aa4 <memcpy+0x40>  // b.any
    44002adc:	14000002 	b	44002ae4 <memcpy+0x80>
    44002ae0:	d503201f 	nop
    44002ae4:	f94017e0 	ldr	x0, [sp, #40]
    44002ae8:	9100c3ff 	add	sp, sp, #0x30
    44002aec:	d65f03c0 	ret

0000000044002af0 <memset>:
    44002af0:	d100c3ff 	sub	sp, sp, #0x30
    44002af4:	f9000fe0 	str	x0, [sp, #24]
    44002af8:	b90017e1 	str	w1, [sp, #20]
    44002afc:	f90007e2 	str	x2, [sp, #8]
    44002b00:	f9400fe0 	ldr	x0, [sp, #24]
    44002b04:	f90017e0 	str	x0, [sp, #40]
    44002b08:	14000007 	b	44002b24 <memset+0x34>
    44002b0c:	f94017e0 	ldr	x0, [sp, #40]
    44002b10:	91000401 	add	x1, x0, #0x1
    44002b14:	f90017e1 	str	x1, [sp, #40]
    44002b18:	b94017e1 	ldr	w1, [sp, #20]
    44002b1c:	12001c21 	and	w1, w1, #0xff
    44002b20:	39000001 	strb	w1, [x0]
    44002b24:	f94007e0 	ldr	x0, [sp, #8]
    44002b28:	d1000401 	sub	x1, x0, #0x1
    44002b2c:	f90007e1 	str	x1, [sp, #8]
    44002b30:	f100001f 	cmp	x0, #0x0
    44002b34:	54fffec1 	b.ne	44002b0c <memset+0x1c>  // b.any
    44002b38:	f9400fe0 	ldr	x0, [sp, #24]
    44002b3c:	9100c3ff 	add	sp, sp, #0x30
    44002b40:	d65f03c0 	ret

0000000044002b44 <strlen>:
    44002b44:	d10083ff 	sub	sp, sp, #0x20
    44002b48:	f90007e0 	str	x0, [sp, #8]
    44002b4c:	f9000fff 	str	xzr, [sp, #24]
    44002b50:	f94007e0 	ldr	x0, [sp, #8]
    44002b54:	f9000be0 	str	x0, [sp, #16]
    44002b58:	14000007 	b	44002b74 <strlen+0x30>
    44002b5c:	f9400fe0 	ldr	x0, [sp, #24]
    44002b60:	91000400 	add	x0, x0, #0x1
    44002b64:	f9000fe0 	str	x0, [sp, #24]
    44002b68:	f9400be0 	ldr	x0, [sp, #16]
    44002b6c:	91000400 	add	x0, x0, #0x1
    44002b70:	f9000be0 	str	x0, [sp, #16]
    44002b74:	f9400be0 	ldr	x0, [sp, #16]
    44002b78:	39400000 	ldrb	w0, [x0]
    44002b7c:	7100001f 	cmp	w0, #0x0
    44002b80:	54fffee1 	b.ne	44002b5c <strlen+0x18>  // b.any
    44002b84:	f9400fe0 	ldr	x0, [sp, #24]
    44002b88:	910083ff 	add	sp, sp, #0x20
    44002b8c:	d65f03c0 	ret

0000000044002b90 <strnlen>:
    44002b90:	d10083ff 	sub	sp, sp, #0x20
    44002b94:	f90007e0 	str	x0, [sp, #8]
    44002b98:	f90003e1 	str	x1, [sp]
    44002b9c:	f9000fff 	str	xzr, [sp, #24]
    44002ba0:	1400000b 	b	44002bcc <strnlen+0x3c>
    44002ba4:	f94007e0 	ldr	x0, [sp, #8]
    44002ba8:	39400000 	ldrb	w0, [x0]
    44002bac:	7100001f 	cmp	w0, #0x0
    44002bb0:	54000180 	b.eq	44002be0 <strnlen+0x50>  // b.none
    44002bb4:	f9400fe0 	ldr	x0, [sp, #24]
    44002bb8:	91000400 	add	x0, x0, #0x1
    44002bbc:	f9000fe0 	str	x0, [sp, #24]
    44002bc0:	f94007e0 	ldr	x0, [sp, #8]
    44002bc4:	91000400 	add	x0, x0, #0x1
    44002bc8:	f90007e0 	str	x0, [sp, #8]
    44002bcc:	f9400fe1 	ldr	x1, [sp, #24]
    44002bd0:	f94003e0 	ldr	x0, [sp]
    44002bd4:	eb00003f 	cmp	x1, x0
    44002bd8:	54fffe63 	b.cc	44002ba4 <strnlen+0x14>  // b.lo, b.ul, b.last
    44002bdc:	14000002 	b	44002be4 <strnlen+0x54>
    44002be0:	d503201f 	nop
    44002be4:	f9400fe0 	ldr	x0, [sp, #24]
    44002be8:	910083ff 	add	sp, sp, #0x20
    44002bec:	d65f03c0 	ret

0000000044002bf0 <isspace>:
    44002bf0:	d10043ff 	sub	sp, sp, #0x10
    44002bf4:	b9000fe0 	str	w0, [sp, #12]
    44002bf8:	b9400fe0 	ldr	w0, [sp, #12]
    44002bfc:	7100801f 	cmp	w0, #0x20
    44002c00:	540000e0 	b.eq	44002c1c <isspace+0x2c>  // b.none
    44002c04:	b9400fe0 	ldr	w0, [sp, #12]
    44002c08:	7100201f 	cmp	w0, #0x8
    44002c0c:	540000cd 	b.le	44002c24 <isspace+0x34>
    44002c10:	b9400fe0 	ldr	w0, [sp, #12]
    44002c14:	7100341f 	cmp	w0, #0xd
    44002c18:	5400006c 	b.gt	44002c24 <isspace+0x34>
    44002c1c:	52800020 	mov	w0, #0x1                   	// #1
    44002c20:	14000002 	b	44002c28 <isspace+0x38>
    44002c24:	52800000 	mov	w0, #0x0                   	// #0
    44002c28:	910043ff 	add	sp, sp, #0x10
    44002c2c:	d65f03c0 	ret

0000000044002c30 <isascii>:
    44002c30:	d10043ff 	sub	sp, sp, #0x10
    44002c34:	b9000fe0 	str	w0, [sp, #12]
    44002c38:	b9400fe0 	ldr	w0, [sp, #12]
    44002c3c:	12196000 	and	w0, w0, #0xffffff80
    44002c40:	7100001f 	cmp	w0, #0x0
    44002c44:	1a9f17e0 	cset	w0, eq  // eq = none
    44002c48:	12001c00 	and	w0, w0, #0xff
    44002c4c:	910043ff 	add	sp, sp, #0x10
    44002c50:	d65f03c0 	ret

0000000044002c54 <isupper>:
    44002c54:	d10043ff 	sub	sp, sp, #0x10
    44002c58:	b9000fe0 	str	w0, [sp, #12]
    44002c5c:	b9400fe0 	ldr	w0, [sp, #12]
    44002c60:	7101001f 	cmp	w0, #0x40
    44002c64:	540000cd 	b.le	44002c7c <isupper+0x28>
    44002c68:	b9400fe0 	ldr	w0, [sp, #12]
    44002c6c:	7101681f 	cmp	w0, #0x5a
    44002c70:	5400006c 	b.gt	44002c7c <isupper+0x28>
    44002c74:	52800020 	mov	w0, #0x1                   	// #1
    44002c78:	14000002 	b	44002c80 <isupper+0x2c>
    44002c7c:	52800000 	mov	w0, #0x0                   	// #0
    44002c80:	910043ff 	add	sp, sp, #0x10
    44002c84:	d65f03c0 	ret

0000000044002c88 <islower>:
    44002c88:	d10043ff 	sub	sp, sp, #0x10
    44002c8c:	b9000fe0 	str	w0, [sp, #12]
    44002c90:	b9400fe0 	ldr	w0, [sp, #12]
    44002c94:	7101801f 	cmp	w0, #0x60
    44002c98:	540000cd 	b.le	44002cb0 <islower+0x28>
    44002c9c:	b9400fe0 	ldr	w0, [sp, #12]
    44002ca0:	7101e81f 	cmp	w0, #0x7a
    44002ca4:	5400006c 	b.gt	44002cb0 <islower+0x28>
    44002ca8:	52800020 	mov	w0, #0x1                   	// #1
    44002cac:	14000002 	b	44002cb4 <islower+0x2c>
    44002cb0:	52800000 	mov	w0, #0x0                   	// #0
    44002cb4:	910043ff 	add	sp, sp, #0x10
    44002cb8:	d65f03c0 	ret

0000000044002cbc <isalpha>:
    44002cbc:	a9be7bfd 	stp	x29, x30, [sp, #-32]!
    44002cc0:	910003fd 	mov	x29, sp
    44002cc4:	b9001fe0 	str	w0, [sp, #28]
    44002cc8:	b9401fe0 	ldr	w0, [sp, #28]
    44002ccc:	97ffffe2 	bl	44002c54 <isupper>
    44002cd0:	7100001f 	cmp	w0, #0x0
    44002cd4:	540000a1 	b.ne	44002ce8 <isalpha+0x2c>  // b.any
    44002cd8:	b9401fe0 	ldr	w0, [sp, #28]
    44002cdc:	97ffffeb 	bl	44002c88 <islower>
    44002ce0:	7100001f 	cmp	w0, #0x0
    44002ce4:	54000060 	b.eq	44002cf0 <isalpha+0x34>  // b.none
    44002ce8:	52800020 	mov	w0, #0x1                   	// #1
    44002cec:	14000002 	b	44002cf4 <isalpha+0x38>
    44002cf0:	52800000 	mov	w0, #0x0                   	// #0
    44002cf4:	a8c27bfd 	ldp	x29, x30, [sp], #32
    44002cf8:	d65f03c0 	ret

0000000044002cfc <isdigit>:
    44002cfc:	d10043ff 	sub	sp, sp, #0x10
    44002d00:	b9000fe0 	str	w0, [sp, #12]
    44002d04:	b9400fe0 	ldr	w0, [sp, #12]
    44002d08:	7100bc1f 	cmp	w0, #0x2f
    44002d0c:	540000cd 	b.le	44002d24 <isdigit+0x28>
    44002d10:	b9400fe0 	ldr	w0, [sp, #12]
    44002d14:	7100e41f 	cmp	w0, #0x39
    44002d18:	5400006c 	b.gt	44002d24 <isdigit+0x28>
    44002d1c:	52800020 	mov	w0, #0x1                   	// #1
    44002d20:	14000002 	b	44002d28 <isdigit+0x2c>
    44002d24:	52800000 	mov	w0, #0x0                   	// #0
    44002d28:	910043ff 	add	sp, sp, #0x10
    44002d2c:	d65f03c0 	ret

0000000044002d30 <strtoul>:
    44002d30:	a9ba7bfd 	stp	x29, x30, [sp, #-96]!
    44002d34:	910003fd 	mov	x29, sp
    44002d38:	f90017e0 	str	x0, [sp, #40]
    44002d3c:	f90013e1 	str	x1, [sp, #32]
    44002d40:	b9001fe2 	str	w2, [sp, #28]
    44002d44:	f94017e0 	ldr	x0, [sp, #40]
    44002d48:	f9002fe0 	str	x0, [sp, #88]
    44002d4c:	b9004bff 	str	wzr, [sp, #72]
    44002d50:	f9402fe0 	ldr	x0, [sp, #88]
    44002d54:	91000401 	add	x1, x0, #0x1
    44002d58:	f9002fe1 	str	x1, [sp, #88]
    44002d5c:	39400000 	ldrb	w0, [x0]
    44002d60:	39013fe0 	strb	w0, [sp, #79]
    44002d64:	39413fe0 	ldrb	w0, [sp, #79]
    44002d68:	97ffffa2 	bl	44002bf0 <isspace>
    44002d6c:	7100001f 	cmp	w0, #0x0
    44002d70:	54ffff01 	b.ne	44002d50 <strtoul+0x20>  // b.any
    44002d74:	39413fe0 	ldrb	w0, [sp, #79]
    44002d78:	7100b41f 	cmp	w0, #0x2d
    44002d7c:	54000121 	b.ne	44002da0 <strtoul+0x70>  // b.any
    44002d80:	52800020 	mov	w0, #0x1                   	// #1
    44002d84:	b9004be0 	str	w0, [sp, #72]
    44002d88:	f9402fe0 	ldr	x0, [sp, #88]
    44002d8c:	91000401 	add	x1, x0, #0x1
    44002d90:	f9002fe1 	str	x1, [sp, #88]
    44002d94:	39400000 	ldrb	w0, [x0]
    44002d98:	39013fe0 	strb	w0, [sp, #79]
    44002d9c:	14000009 	b	44002dc0 <strtoul+0x90>
    44002da0:	39413fe0 	ldrb	w0, [sp, #79]
    44002da4:	7100ac1f 	cmp	w0, #0x2b
    44002da8:	540000c1 	b.ne	44002dc0 <strtoul+0x90>  // b.any
    44002dac:	f9402fe0 	ldr	x0, [sp, #88]
    44002db0:	91000401 	add	x1, x0, #0x1
    44002db4:	f9002fe1 	str	x1, [sp, #88]
    44002db8:	39400000 	ldrb	w0, [x0]
    44002dbc:	39013fe0 	strb	w0, [sp, #79]
    44002dc0:	b9401fe0 	ldr	w0, [sp, #28]
    44002dc4:	7100001f 	cmp	w0, #0x0
    44002dc8:	54000080 	b.eq	44002dd8 <strtoul+0xa8>  // b.none
    44002dcc:	b9401fe0 	ldr	w0, [sp, #28]
    44002dd0:	7100401f 	cmp	w0, #0x10
    44002dd4:	540002a1 	b.ne	44002e28 <strtoul+0xf8>  // b.any
    44002dd8:	39413fe0 	ldrb	w0, [sp, #79]
    44002ddc:	7100c01f 	cmp	w0, #0x30
    44002de0:	54000241 	b.ne	44002e28 <strtoul+0xf8>  // b.any
    44002de4:	f9402fe0 	ldr	x0, [sp, #88]
    44002de8:	39400000 	ldrb	w0, [x0]
    44002dec:	7101e01f 	cmp	w0, #0x78
    44002df0:	540000a0 	b.eq	44002e04 <strtoul+0xd4>  // b.none
    44002df4:	f9402fe0 	ldr	x0, [sp, #88]
    44002df8:	39400000 	ldrb	w0, [x0]
    44002dfc:	7101601f 	cmp	w0, #0x58
    44002e00:	54000141 	b.ne	44002e28 <strtoul+0xf8>  // b.any
    44002e04:	f9402fe0 	ldr	x0, [sp, #88]
    44002e08:	91000400 	add	x0, x0, #0x1
    44002e0c:	39400000 	ldrb	w0, [x0]
    44002e10:	39013fe0 	strb	w0, [sp, #79]
    44002e14:	f9402fe0 	ldr	x0, [sp, #88]
    44002e18:	91000800 	add	x0, x0, #0x2
    44002e1c:	f9002fe0 	str	x0, [sp, #88]
    44002e20:	52800200 	mov	w0, #0x10                  	// #16
    44002e24:	b9001fe0 	str	w0, [sp, #28]
    44002e28:	b9401fe0 	ldr	w0, [sp, #28]
    44002e2c:	7100001f 	cmp	w0, #0x0
    44002e30:	54000101 	b.ne	44002e50 <strtoul+0x120>  // b.any
    44002e34:	39413fe0 	ldrb	w0, [sp, #79]
    44002e38:	7100c01f 	cmp	w0, #0x30
    44002e3c:	54000061 	b.ne	44002e48 <strtoul+0x118>  // b.any
    44002e40:	52800100 	mov	w0, #0x8                   	// #8
    44002e44:	14000002 	b	44002e4c <strtoul+0x11c>
    44002e48:	52800140 	mov	w0, #0xa                   	// #10
    44002e4c:	b9001fe0 	str	w0, [sp, #28]
    44002e50:	b9801fe0 	ldrsw	x0, [sp, #28]
    44002e54:	92800001 	mov	x1, #0xffffffffffffffff    	// #-1
    44002e58:	9ac00820 	udiv	x0, x1, x0
    44002e5c:	f9001fe0 	str	x0, [sp, #56]
    44002e60:	b9801fe1 	ldrsw	x1, [sp, #28]
    44002e64:	92800000 	mov	x0, #0xffffffffffffffff    	// #-1
    44002e68:	9ac10802 	udiv	x2, x0, x1
    44002e6c:	9b017c41 	mul	x1, x2, x1
    44002e70:	cb010000 	sub	x0, x0, x1
    44002e74:	b90037e0 	str	w0, [sp, #52]
    44002e78:	f9002bff 	str	xzr, [sp, #80]
    44002e7c:	b90047ff 	str	wzr, [sp, #68]
    44002e80:	39413fe0 	ldrb	w0, [sp, #79]
    44002e84:	97ffff6b 	bl	44002c30 <isascii>
    44002e88:	7100001f 	cmp	w0, #0x0
    44002e8c:	540007c0 	b.eq	44002f84 <strtoul+0x254>  // b.none
    44002e90:	39413fe0 	ldrb	w0, [sp, #79]
    44002e94:	97ffff9a 	bl	44002cfc <isdigit>
    44002e98:	7100001f 	cmp	w0, #0x0
    44002e9c:	540000a0 	b.eq	44002eb0 <strtoul+0x180>  // b.none
    44002ea0:	39413fe0 	ldrb	w0, [sp, #79]
    44002ea4:	5100c000 	sub	w0, w0, #0x30
    44002ea8:	39013fe0 	strb	w0, [sp, #79]
    44002eac:	14000010 	b	44002eec <strtoul+0x1bc>
    44002eb0:	39413fe0 	ldrb	w0, [sp, #79]
    44002eb4:	97ffff82 	bl	44002cbc <isalpha>
    44002eb8:	7100001f 	cmp	w0, #0x0
    44002ebc:	54000680 	b.eq	44002f8c <strtoul+0x25c>  // b.none
    44002ec0:	39413fe0 	ldrb	w0, [sp, #79]
    44002ec4:	97ffff64 	bl	44002c54 <isupper>
    44002ec8:	7100001f 	cmp	w0, #0x0
    44002ecc:	54000060 	b.eq	44002ed8 <strtoul+0x1a8>  // b.none
    44002ed0:	528006e0 	mov	w0, #0x37                  	// #55
    44002ed4:	14000002 	b	44002edc <strtoul+0x1ac>
    44002ed8:	52800ae0 	mov	w0, #0x57                  	// #87
    44002edc:	12001c00 	and	w0, w0, #0xff
    44002ee0:	39413fe1 	ldrb	w1, [sp, #79]
    44002ee4:	4b000020 	sub	w0, w1, w0
    44002ee8:	39013fe0 	strb	w0, [sp, #79]
    44002eec:	39413fe0 	ldrb	w0, [sp, #79]
    44002ef0:	b9401fe1 	ldr	w1, [sp, #28]
    44002ef4:	6b00003f 	cmp	w1, w0
    44002ef8:	540004ed 	b.le	44002f94 <strtoul+0x264>
    44002efc:	b94047e0 	ldr	w0, [sp, #68]
    44002f00:	7100001f 	cmp	w0, #0x0
    44002f04:	540001ab 	b.lt	44002f38 <strtoul+0x208>  // b.tstop
    44002f08:	f9402be1 	ldr	x1, [sp, #80]
    44002f0c:	f9401fe0 	ldr	x0, [sp, #56]
    44002f10:	eb00003f 	cmp	x1, x0
    44002f14:	54000128 	b.hi	44002f38 <strtoul+0x208>  // b.pmore
    44002f18:	f9402be1 	ldr	x1, [sp, #80]
    44002f1c:	f9401fe0 	ldr	x0, [sp, #56]
    44002f20:	eb00003f 	cmp	x1, x0
    44002f24:	54000101 	b.ne	44002f44 <strtoul+0x214>  // b.any
    44002f28:	39413fe0 	ldrb	w0, [sp, #79]
    44002f2c:	b94037e1 	ldr	w1, [sp, #52]
    44002f30:	6b00003f 	cmp	w1, w0
    44002f34:	5400008a 	b.ge	44002f44 <strtoul+0x214>  // b.tcont
    44002f38:	12800000 	mov	w0, #0xffffffff            	// #-1
    44002f3c:	b90047e0 	str	w0, [sp, #68]
    44002f40:	1400000b 	b	44002f6c <strtoul+0x23c>
    44002f44:	52800020 	mov	w0, #0x1                   	// #1
    44002f48:	b90047e0 	str	w0, [sp, #68]
    44002f4c:	b9801fe0 	ldrsw	x0, [sp, #28]
    44002f50:	f9402be1 	ldr	x1, [sp, #80]
    44002f54:	9b007c20 	mul	x0, x1, x0
    44002f58:	f9002be0 	str	x0, [sp, #80]
    44002f5c:	39413fe0 	ldrb	w0, [sp, #79]
    44002f60:	f9402be1 	ldr	x1, [sp, #80]
    44002f64:	8b000020 	add	x0, x1, x0
    44002f68:	f9002be0 	str	x0, [sp, #80]
    44002f6c:	f9402fe0 	ldr	x0, [sp, #88]
    44002f70:	91000401 	add	x1, x0, #0x1
    44002f74:	f9002fe1 	str	x1, [sp, #88]
    44002f78:	39400000 	ldrb	w0, [x0]
    44002f7c:	39013fe0 	strb	w0, [sp, #79]
    44002f80:	17ffffc0 	b	44002e80 <strtoul+0x150>
    44002f84:	d503201f 	nop
    44002f88:	14000004 	b	44002f98 <strtoul+0x268>
    44002f8c:	d503201f 	nop
    44002f90:	14000002 	b	44002f98 <strtoul+0x268>
    44002f94:	d503201f 	nop
    44002f98:	b94047e0 	ldr	w0, [sp, #68]
    44002f9c:	7100001f 	cmp	w0, #0x0
    44002fa0:	5400008a 	b.ge	44002fb0 <strtoul+0x280>  // b.tcont
    44002fa4:	92800000 	mov	x0, #0xffffffffffffffff    	// #-1
    44002fa8:	f9002be0 	str	x0, [sp, #80]
    44002fac:	14000007 	b	44002fc8 <strtoul+0x298>
    44002fb0:	b9404be0 	ldr	w0, [sp, #72]
    44002fb4:	7100001f 	cmp	w0, #0x0
    44002fb8:	54000080 	b.eq	44002fc8 <strtoul+0x298>  // b.none
    44002fbc:	f9402be0 	ldr	x0, [sp, #80]
    44002fc0:	cb0003e0 	neg	x0, x0
    44002fc4:	f9002be0 	str	x0, [sp, #80]
    44002fc8:	f94013e0 	ldr	x0, [sp, #32]
    44002fcc:	f100001f 	cmp	x0, #0x0
    44002fd0:	54000140 	b.eq	44002ff8 <strtoul+0x2c8>  // b.none
    44002fd4:	b94047e0 	ldr	w0, [sp, #68]
    44002fd8:	7100001f 	cmp	w0, #0x0
    44002fdc:	54000080 	b.eq	44002fec <strtoul+0x2bc>  // b.none
    44002fe0:	f9402fe0 	ldr	x0, [sp, #88]
    44002fe4:	d1000400 	sub	x0, x0, #0x1
    44002fe8:	14000002 	b	44002ff0 <strtoul+0x2c0>
    44002fec:	f94017e0 	ldr	x0, [sp, #40]
    44002ff0:	f94013e1 	ldr	x1, [sp, #32]
    44002ff4:	f9000020 	str	x0, [x1]
    44002ff8:	f9402be0 	ldr	x0, [sp, #80]
    44002ffc:	a8c67bfd 	ldp	x29, x30, [sp], #96
    44003000:	d65f03c0 	ret

0000000044003004 <strchr>:
    44003004:	d10083ff 	sub	sp, sp, #0x20
    44003008:	f90007e0 	str	x0, [sp, #8]
    4400300c:	b90007e1 	str	w1, [sp, #4]
    44003010:	f94007e0 	ldr	x0, [sp, #8]
    44003014:	f9000fe0 	str	x0, [sp, #24]
    44003018:	f9400fe0 	ldr	x0, [sp, #24]
    4400301c:	39400000 	ldrb	w0, [x0]
    44003020:	2a0003e1 	mov	w1, w0
    44003024:	b94007e0 	ldr	w0, [sp, #4]
    44003028:	6b01001f 	cmp	w0, w1
    4400302c:	54000061 	b.ne	44003038 <strchr+0x34>  // b.any
    44003030:	f9400fe0 	ldr	x0, [sp, #24]
    44003034:	1400000b 	b	44003060 <strchr+0x5c>
    44003038:	f9400fe0 	ldr	x0, [sp, #24]
    4400303c:	39400000 	ldrb	w0, [x0]
    44003040:	7100001f 	cmp	w0, #0x0
    44003044:	54000061 	b.ne	44003050 <strchr+0x4c>  // b.any
    44003048:	d2800000 	mov	x0, #0x0                   	// #0
    4400304c:	14000005 	b	44003060 <strchr+0x5c>
    44003050:	f9400fe0 	ldr	x0, [sp, #24]
    44003054:	91000400 	add	x0, x0, #0x1
    44003058:	f9000fe0 	str	x0, [sp, #24]
    4400305c:	17ffffef 	b	44003018 <strchr+0x14>
    44003060:	910083ff 	add	sp, sp, #0x20
    44003064:	d65f03c0 	ret

0000000044003068 <strrchr>:
    44003068:	d10083ff 	sub	sp, sp, #0x20
    4400306c:	f90007e0 	str	x0, [sp, #8]
    44003070:	b90007e1 	str	w1, [sp, #4]
    44003074:	f94007e0 	ldr	x0, [sp, #8]
    44003078:	f9000fe0 	str	x0, [sp, #24]
    4400307c:	f9000bff 	str	xzr, [sp, #16]
    44003080:	f9400fe0 	ldr	x0, [sp, #24]
    44003084:	39400000 	ldrb	w0, [x0]
    44003088:	2a0003e1 	mov	w1, w0
    4400308c:	b94007e0 	ldr	w0, [sp, #4]
    44003090:	6b01001f 	cmp	w0, w1
    44003094:	54000061 	b.ne	440030a0 <strrchr+0x38>  // b.any
    44003098:	f9400fe0 	ldr	x0, [sp, #24]
    4400309c:	f9000be0 	str	x0, [sp, #16]
    440030a0:	f9400fe0 	ldr	x0, [sp, #24]
    440030a4:	39400000 	ldrb	w0, [x0]
    440030a8:	7100001f 	cmp	w0, #0x0
    440030ac:	54000061 	b.ne	440030b8 <strrchr+0x50>  // b.any
    440030b0:	f9400be0 	ldr	x0, [sp, #16]
    440030b4:	14000005 	b	440030c8 <strrchr+0x60>
    440030b8:	f9400fe0 	ldr	x0, [sp, #24]
    440030bc:	91000400 	add	x0, x0, #0x1
    440030c0:	f9000fe0 	str	x0, [sp, #24]
    440030c4:	17ffffef 	b	44003080 <strrchr+0x18>
    440030c8:	910083ff 	add	sp, sp, #0x20
    440030cc:	d65f03c0 	ret

00000000440030d0 <hex2ascii>:
    440030d0:	d10043ff 	sub	sp, sp, #0x10
    440030d4:	b9000fe0 	str	w0, [sp, #12]
    440030d8:	900000a0 	adrp	x0, 44017000 <krhino_workqueue_create+0x6c>
    440030dc:	91258001 	add	x1, x0, #0x960
    440030e0:	b9800fe0 	ldrsw	x0, [sp, #12]
    440030e4:	38606820 	ldrb	w0, [x1, x0]
    440030e8:	910043ff 	add	sp, sp, #0x10
    440030ec:	d65f03c0 	ret

00000000440030f0 <imax>:
    440030f0:	d10043ff 	sub	sp, sp, #0x10
    440030f4:	b9000fe0 	str	w0, [sp, #12]
    440030f8:	b9000be1 	str	w1, [sp, #8]
    440030fc:	b9400fe0 	ldr	w0, [sp, #12]
    44003100:	b9400be2 	ldr	w2, [sp, #8]
    44003104:	b9400be1 	ldr	w1, [sp, #8]
    44003108:	6b00005f 	cmp	w2, w0
    4400310c:	1a80a020 	csel	w0, w1, w0, ge  // ge = tcont
    44003110:	910043ff 	add	sp, sp, #0x10
    44003114:	d65f03c0 	ret

0000000044003118 <toupper>:
    44003118:	d10043ff 	sub	sp, sp, #0x10
    4400311c:	b9000fe0 	str	w0, [sp, #12]
    44003120:	b9400fe0 	ldr	w0, [sp, #12]
    44003124:	7101801f 	cmp	w0, #0x60
    44003128:	540000cd 	b.le	44003140 <toupper+0x28>
    4400312c:	b9400fe0 	ldr	w0, [sp, #12]
    44003130:	7101e81f 	cmp	w0, #0x7a
    44003134:	5400006c 	b.gt	44003140 <toupper+0x28>
    44003138:	52800020 	mov	w0, #0x1                   	// #1
    4400313c:	14000002 	b	44003144 <toupper+0x2c>
    44003140:	52800000 	mov	w0, #0x0                   	// #0
    44003144:	531b6800 	lsl	w0, w0, #5
    44003148:	b9400fe1 	ldr	w1, [sp, #12]
    4400314c:	4b000020 	sub	w0, w1, w0
    44003150:	910043ff 	add	sp, sp, #0x10
    44003154:	d65f03c0 	ret

0000000044003158 <k_snprintf_func>:
    44003158:	d10083ff 	sub	sp, sp, #0x20
    4400315c:	b9000fe0 	str	w0, [sp, #12]
    44003160:	f90003e1 	str	x1, [sp]
    44003164:	f94003e0 	ldr	x0, [sp]
    44003168:	f9000fe0 	str	x0, [sp, #24]
    4400316c:	f9400fe0 	ldr	x0, [sp, #24]
    44003170:	f9400400 	ldr	x0, [x0, #8]
    44003174:	f100041f 	cmp	x0, #0x1
    44003178:	540001c9 	b.ls	440031b0 <k_snprintf_func+0x58>  // b.plast
    4400317c:	f9400fe0 	ldr	x0, [sp, #24]
    44003180:	f9400000 	ldr	x0, [x0]
    44003184:	91000402 	add	x2, x0, #0x1
    44003188:	f9400fe1 	ldr	x1, [sp, #24]
    4400318c:	f9000022 	str	x2, [x1]
    44003190:	b9400fe1 	ldr	w1, [sp, #12]
    44003194:	12001c21 	and	w1, w1, #0xff
    44003198:	39000001 	strb	w1, [x0]
    4400319c:	f9400fe0 	ldr	x0, [sp, #24]
    440031a0:	f9400400 	ldr	x0, [x0, #8]
    440031a4:	d1000401 	sub	x1, x0, #0x1
    440031a8:	f9400fe0 	ldr	x0, [sp, #24]
    440031ac:	f9000401 	str	x1, [x0, #8]
    440031b0:	d503201f 	nop
    440031b4:	910083ff 	add	sp, sp, #0x20
    440031b8:	d65f03c0 	ret

00000000440031bc <k_snprintf>:
    440031bc:	a9b57bfd 	stp	x29, x30, [sp, #-176]!
    440031c0:	910003fd 	mov	x29, sp
    440031c4:	f90027e0 	str	x0, [sp, #72]
    440031c8:	f90023e1 	str	x1, [sp, #64]
    440031cc:	f9001fe2 	str	x2, [sp, #56]
    440031d0:	f90047e3 	str	x3, [sp, #136]
    440031d4:	f9004be4 	str	x4, [sp, #144]
    440031d8:	f9004fe5 	str	x5, [sp, #152]
    440031dc:	f90053e6 	str	x6, [sp, #160]
    440031e0:	f90057e7 	str	x7, [sp, #168]
    440031e4:	9102c3e0 	add	x0, sp, #0xb0
    440031e8:	f9002fe0 	str	x0, [sp, #88]
    440031ec:	9102c3e0 	add	x0, sp, #0xb0
    440031f0:	f90033e0 	str	x0, [sp, #96]
    440031f4:	910203e0 	add	x0, sp, #0x80
    440031f8:	f90037e0 	str	x0, [sp, #104]
    440031fc:	128004e0 	mov	w0, #0xffffffd8            	// #-40
    44003200:	b90073e0 	str	w0, [sp, #112]
    44003204:	b90077ff 	str	wzr, [sp, #116]
    44003208:	910043e2 	add	x2, sp, #0x10
    4400320c:	910163e3 	add	x3, sp, #0x58
    44003210:	a9400460 	ldp	x0, x1, [x3]
    44003214:	a9000440 	stp	x0, x1, [x2]
    44003218:	a9410460 	ldp	x0, x1, [x3, #16]
    4400321c:	a9010440 	stp	x0, x1, [x2, #16]
    44003220:	910043e0 	add	x0, sp, #0x10
    44003224:	aa0003e3 	mov	x3, x0
    44003228:	f9401fe2 	ldr	x2, [sp, #56]
    4400322c:	f94023e1 	ldr	x1, [sp, #64]
    44003230:	f94027e0 	ldr	x0, [sp, #72]
    44003234:	94000005 	bl	44003248 <k_vsnprintf>
    44003238:	b9007fe0 	str	w0, [sp, #124]
    4400323c:	b9407fe0 	ldr	w0, [sp, #124]
    44003240:	a8cb7bfd 	ldp	x29, x30, [sp], #176
    44003244:	d65f03c0 	ret

0000000044003248 <k_vsnprintf>:
    44003248:	a9b87bfd 	stp	x29, x30, [sp, #-128]!
    4400324c:	910003fd 	mov	x29, sp
    44003250:	f9000bf3 	str	x19, [sp, #16]
    44003254:	f9002fe0 	str	x0, [sp, #88]
    44003258:	f9002be1 	str	x1, [sp, #80]
    4400325c:	f90027e2 	str	x2, [sp, #72]
    44003260:	aa0303f3 	mov	x19, x3
    44003264:	f9402fe0 	ldr	x0, [sp, #88]
    44003268:	f90037e0 	str	x0, [sp, #104]
    4400326c:	f9402be0 	ldr	x0, [sp, #80]
    44003270:	f9003be0 	str	x0, [sp, #112]
    44003274:	910083e2 	add	x2, sp, #0x20
    44003278:	aa1303e3 	mov	x3, x19
    4400327c:	a9400460 	ldp	x0, x1, [x3]
    44003280:	a9000440 	stp	x0, x1, [x2]
    44003284:	a9410460 	ldp	x0, x1, [x3, #16]
    44003288:	a9010440 	stp	x0, x1, [x2, #16]
    4400328c:	910083e1 	add	x1, sp, #0x20
    44003290:	9101a3e0 	add	x0, sp, #0x68
    44003294:	aa0103e4 	mov	x4, x1
    44003298:	52800143 	mov	w3, #0xa                   	// #10
    4400329c:	aa0003e2 	mov	x2, x0
    440032a0:	90000000 	adrp	x0, 44003000 <strtoul+0x2d0>
    440032a4:	91056001 	add	x1, x0, #0x158
    440032a8:	f94027e0 	ldr	x0, [sp, #72]
    440032ac:	94000075 	bl	44003480 <k_vprintf>
    440032b0:	b9007fe0 	str	w0, [sp, #124]
    440032b4:	f9403be0 	ldr	x0, [sp, #112]
    440032b8:	f100001f 	cmp	x0, #0x0
    440032bc:	540000a0 	b.eq	440032d0 <k_vsnprintf+0x88>  // b.none
    440032c0:	f94037e0 	ldr	x0, [sp, #104]
    440032c4:	91000401 	add	x1, x0, #0x1
    440032c8:	f90037e1 	str	x1, [sp, #104]
    440032cc:	3900001f 	strb	wzr, [x0]
    440032d0:	b9407fe0 	ldr	w0, [sp, #124]
    440032d4:	f9400bf3 	ldr	x19, [sp, #16]
    440032d8:	a8c87bfd 	ldp	x29, x30, [sp], #128
    440032dc:	d65f03c0 	ret

00000000440032e0 <k_sprintn>:
    440032e0:	a9bc7bfd 	stp	x29, x30, [sp, #-64]!
    440032e4:	910003fd 	mov	x29, sp
    440032e8:	f90017e0 	str	x0, [sp, #40]
    440032ec:	f90013e1 	str	x1, [sp, #32]
    440032f0:	b9001fe2 	str	w2, [sp, #28]
    440032f4:	f9000be3 	str	x3, [sp, #16]
    440032f8:	b9001be4 	str	w4, [sp, #24]
    440032fc:	f94017e0 	ldr	x0, [sp, #40]
    44003300:	f9001fe0 	str	x0, [sp, #56]
    44003304:	f9401fe0 	ldr	x0, [sp, #56]
    44003308:	3900001f 	strb	wzr, [x0]
    4400330c:	b9801fe1 	ldrsw	x1, [sp, #28]
    44003310:	f94013e0 	ldr	x0, [sp, #32]
    44003314:	9ac10802 	udiv	x2, x0, x1
    44003318:	9b017c41 	mul	x1, x2, x1
    4400331c:	cb010000 	sub	x0, x0, x1
    44003320:	97ffff6c 	bl	440030d0 <hex2ascii>
    44003324:	3900dfe0 	strb	w0, [sp, #55]
    44003328:	b9401be0 	ldr	w0, [sp, #24]
    4400332c:	7100001f 	cmp	w0, #0x0
    44003330:	540000a0 	b.eq	44003344 <k_sprintn+0x64>  // b.none
    44003334:	3940dfe0 	ldrb	w0, [sp, #55]
    44003338:	97ffff78 	bl	44003118 <toupper>
    4400333c:	12001c00 	and	w0, w0, #0xff
    44003340:	14000002 	b	44003348 <k_sprintn+0x68>
    44003344:	3940dfe0 	ldrb	w0, [sp, #55]
    44003348:	f9401fe1 	ldr	x1, [sp, #56]
    4400334c:	91000421 	add	x1, x1, #0x1
    44003350:	f9001fe1 	str	x1, [sp, #56]
    44003354:	f9401fe1 	ldr	x1, [sp, #56]
    44003358:	39000020 	strb	w0, [x1]
    4400335c:	b9801fe0 	ldrsw	x0, [sp, #28]
    44003360:	f94013e1 	ldr	x1, [sp, #32]
    44003364:	9ac00820 	udiv	x0, x1, x0
    44003368:	f90013e0 	str	x0, [sp, #32]
    4400336c:	f94013e0 	ldr	x0, [sp, #32]
    44003370:	f100001f 	cmp	x0, #0x0
    44003374:	54fffcc1 	b.ne	4400330c <k_sprintn+0x2c>  // b.any
    44003378:	f9400be0 	ldr	x0, [sp, #16]
    4400337c:	f100001f 	cmp	x0, #0x0
    44003380:	540000e0 	b.eq	4400339c <k_sprintn+0xbc>  // b.none
    44003384:	f9401fe1 	ldr	x1, [sp, #56]
    44003388:	f94017e0 	ldr	x0, [sp, #40]
    4400338c:	cb000020 	sub	x0, x1, x0
    44003390:	2a0003e1 	mov	w1, w0
    44003394:	f9400be0 	ldr	x0, [sp, #16]
    44003398:	b9000001 	str	w1, [x0]
    4400339c:	f9401fe0 	ldr	x0, [sp, #56]
    440033a0:	a8c47bfd 	ldp	x29, x30, [sp], #64
    440033a4:	d65f03c0 	ret

00000000440033a8 <stdout_putc>:
    440033a8:	a9bd7bfd 	stp	x29, x30, [sp, #-48]!
    440033ac:	910003fd 	mov	x29, sp
    440033b0:	b9001fe0 	str	w0, [sp, #28]
    440033b4:	f9000be1 	str	x1, [sp, #16]
    440033b8:	f9400be0 	ldr	x0, [sp, #16]
    440033bc:	f90017e0 	str	x0, [sp, #40]
    440033c0:	f94017e0 	ldr	x0, [sp, #40]
    440033c4:	f9400001 	ldr	x1, [x0]
    440033c8:	b9401fe0 	ldr	w0, [sp, #28]
    440033cc:	12001c00 	and	w0, w0, #0xff
    440033d0:	d63f0020 	blr	x1
    440033d4:	d503201f 	nop
    440033d8:	a8c37bfd 	ldp	x29, x30, [sp], #48
    440033dc:	d65f03c0 	ret

00000000440033e0 <k_printf>:
    440033e0:	a9b57bfd 	stp	x29, x30, [sp, #-176]!
    440033e4:	910003fd 	mov	x29, sp
    440033e8:	f9001fe0 	str	x0, [sp, #56]
    440033ec:	f9003fe1 	str	x1, [sp, #120]
    440033f0:	f90043e2 	str	x2, [sp, #128]
    440033f4:	f90047e3 	str	x3, [sp, #136]
    440033f8:	f9004be4 	str	x4, [sp, #144]
    440033fc:	f9004fe5 	str	x5, [sp, #152]
    44003400:	f90053e6 	str	x6, [sp, #160]
    44003404:	f90057e7 	str	x7, [sp, #168]
    44003408:	9102c3e0 	add	x0, sp, #0xb0
    4400340c:	f90027e0 	str	x0, [sp, #72]
    44003410:	9102c3e0 	add	x0, sp, #0xb0
    44003414:	f9002be0 	str	x0, [sp, #80]
    44003418:	9101c3e0 	add	x0, sp, #0x70
    4400341c:	f9002fe0 	str	x0, [sp, #88]
    44003420:	128006e0 	mov	w0, #0xffffffc8            	// #-56
    44003424:	b90063e0 	str	w0, [sp, #96]
    44003428:	b90067ff 	str	wzr, [sp, #100]
    4400342c:	b00000c0 	adrp	x0, 4401c000 <__GNU_EH_FRAME_HDR+0x238>
    44003430:	913b6000 	add	x0, x0, #0xed8
    44003434:	f9400005 	ldr	x5, [x0]
    44003438:	910043e2 	add	x2, sp, #0x10
    4400343c:	910123e3 	add	x3, sp, #0x48
    44003440:	a9400460 	ldp	x0, x1, [x3]
    44003444:	a9000440 	stp	x0, x1, [x2]
    44003448:	a9410460 	ldp	x0, x1, [x3, #16]
    4400344c:	a9010440 	stp	x0, x1, [x2, #16]
    44003450:	910043e0 	add	x0, sp, #0x10
    44003454:	aa0003e4 	mov	x4, x0
    44003458:	52800143 	mov	w3, #0xa                   	// #10
    4400345c:	aa0503e2 	mov	x2, x5
    44003460:	90000000 	adrp	x0, 44003000 <strtoul+0x2d0>
    44003464:	910ea001 	add	x1, x0, #0x3a8
    44003468:	f9401fe0 	ldr	x0, [sp, #56]
    4400346c:	94000005 	bl	44003480 <k_vprintf>
    44003470:	b9006fe0 	str	w0, [sp, #108]
    44003474:	b9406fe0 	ldr	w0, [sp, #108]
    44003478:	a8cb7bfd 	ldp	x29, x30, [sp], #176
    4400347c:	d65f03c0 	ret

0000000044003480 <k_vprintf>:
    44003480:	a9a87bfd 	stp	x29, x30, [sp, #-384]!
    44003484:	910003fd 	mov	x29, sp
    44003488:	f9000bf3 	str	x19, [sp, #16]
    4400348c:	f9001fe0 	str	x0, [sp, #56]
    44003490:	f9001be1 	str	x1, [sp, #48]
    44003494:	f90017e2 	str	x2, [sp, #40]
    44003498:	b90027e3 	str	w3, [sp, #36]
    4400349c:	aa0403f3 	mov	x19, x4
    440034a0:	b900fbff 	str	wzr, [sp, #248]
    440034a4:	b900f7ff 	str	wzr, [sp, #244]
    440034a8:	f900a7ff 	str	xzr, [sp, #328]
    440034ac:	f900b3ff 	str	xzr, [sp, #352]
    440034b0:	f9401be0 	ldr	x0, [sp, #48]
    440034b4:	f100001f 	cmp	x0, #0x0
    440034b8:	54000081 	b.ne	440034c8 <k_vprintf+0x48>  // b.any
    440034bc:	f94017e0 	ldr	x0, [sp, #40]
    440034c0:	f900bfe0 	str	x0, [sp, #376]
    440034c4:	14000002 	b	440034cc <k_vprintf+0x4c>
    440034c8:	f900bfff 	str	xzr, [sp, #376]
    440034cc:	f9401fe0 	ldr	x0, [sp, #56]
    440034d0:	f100001f 	cmp	x0, #0x0
    440034d4:	54000081 	b.ne	440034e4 <k_vprintf+0x64>  // b.any
    440034d8:	900000a0 	adrp	x0, 44017000 <krhino_workqueue_create+0x6c>
    440034dc:	91262000 	add	x0, x0, #0x988
    440034e0:	f9001fe0 	str	x0, [sp, #56]
    440034e4:	b94027e0 	ldr	w0, [sp, #36]
    440034e8:	7100041f 	cmp	w0, #0x1
    440034ec:	5400008d 	b.le	440034fc <k_vprintf+0x7c>
    440034f0:	b94027e0 	ldr	w0, [sp, #36]
    440034f4:	7100901f 	cmp	w0, #0x24
    440034f8:	5400006d 	b.le	44003504 <k_vprintf+0x84>
    440034fc:	52800140 	mov	w0, #0xa                   	// #10
    44003500:	b90027e0 	str	w0, [sp, #36]
    44003504:	52800400 	mov	w0, #0x20                  	// #32
    44003508:	3903ffe0 	strb	w0, [sp, #255]
    4400350c:	b90137ff 	str	wzr, [sp, #308]
    44003510:	14000019 	b	44003574 <k_vprintf+0xf4>
    44003514:	b94157e0 	ldr	w0, [sp, #340]
    44003518:	7100001f 	cmp	w0, #0x0
    4400351c:	54000061 	b.ne	44003528 <k_vprintf+0xa8>  // b.any
    44003520:	b940f7e0 	ldr	w0, [sp, #244]
    44003524:	1400069f 	b	44004fa0 <k_vprintf+0x1b20>
    44003528:	b94157e0 	ldr	w0, [sp, #340]
    4400352c:	b9009be0 	str	w0, [sp, #152]
    44003530:	f9401be0 	ldr	x0, [sp, #48]
    44003534:	f100001f 	cmp	x0, #0x0
    44003538:	540000c0 	b.eq	44003550 <k_vprintf+0xd0>  // b.none
    4400353c:	f9401be2 	ldr	x2, [sp, #48]
    44003540:	f94017e1 	ldr	x1, [sp, #40]
    44003544:	b9409be0 	ldr	w0, [sp, #152]
    44003548:	d63f0040 	blr	x2
    4400354c:	14000007 	b	44003568 <k_vprintf+0xe8>
    44003550:	f940bfe0 	ldr	x0, [sp, #376]
    44003554:	91000401 	add	x1, x0, #0x1
    44003558:	f900bfe1 	str	x1, [sp, #376]
    4400355c:	b9409be1 	ldr	w1, [sp, #152]
    44003560:	12001c21 	and	w1, w1, #0xff
    44003564:	39000001 	strb	w1, [x0]
    44003568:	b940f7e0 	ldr	w0, [sp, #244]
    4400356c:	11000400 	add	w0, w0, #0x1
    44003570:	b900f7e0 	str	w0, [sp, #244]
    44003574:	f9401fe0 	ldr	x0, [sp, #56]
    44003578:	91000401 	add	x1, x0, #0x1
    4400357c:	f9001fe1 	str	x1, [sp, #56]
    44003580:	39400000 	ldrb	w0, [x0]
    44003584:	b90157e0 	str	w0, [sp, #340]
    44003588:	b94157e0 	ldr	w0, [sp, #340]
    4400358c:	7100941f 	cmp	w0, #0x25
    44003590:	54fffc21 	b.ne	44003514 <k_vprintf+0x94>  // b.any
    44003594:	b940fbe0 	ldr	w0, [sp, #248]
    44003598:	7100001f 	cmp	w0, #0x0
    4400359c:	54fffbc1 	b.ne	44003514 <k_vprintf+0x94>  // b.any
    440035a0:	f9401fe0 	ldr	x0, [sp, #56]
    440035a4:	d1000400 	sub	x0, x0, #0x1
    440035a8:	f900b7e0 	str	x0, [sp, #360]
    440035ac:	b9013fff 	str	wzr, [sp, #316]
    440035b0:	b90143ff 	str	wzr, [sp, #320]
    440035b4:	b90133ff 	str	wzr, [sp, #304]
    440035b8:	b9012fff 	str	wzr, [sp, #300]
    440035bc:	b9012bff 	str	wzr, [sp, #296]
    440035c0:	b90127ff 	str	wzr, [sp, #292]
    440035c4:	b90123ff 	str	wzr, [sp, #288]
    440035c8:	b9010bff 	str	wzr, [sp, #264]
    440035cc:	b90107ff 	str	wzr, [sp, #260]
    440035d0:	b90103ff 	str	wzr, [sp, #256]
    440035d4:	b9011fff 	str	wzr, [sp, #284]
    440035d8:	b9011bff 	str	wzr, [sp, #280]
    440035dc:	b90117ff 	str	wzr, [sp, #276]
    440035e0:	b90113ff 	str	wzr, [sp, #272]
    440035e4:	b9010fff 	str	wzr, [sp, #268]
    440035e8:	f9401fe0 	ldr	x0, [sp, #56]
    440035ec:	91000401 	add	x1, x0, #0x1
    440035f0:	f9001fe1 	str	x1, [sp, #56]
    440035f4:	39400000 	ldrb	w0, [x0]
    440035f8:	b90157e0 	str	w0, [sp, #340]
    440035fc:	b94157e0 	ldr	w0, [sp, #340]
    44003600:	51008c00 	sub	w0, w0, #0x23
    44003604:	71015c1f 	cmp	w0, #0x57
    44003608:	5400cb28 	b.hi	44004f6c <k_vprintf+0x1aec>  // b.pmore
    4400360c:	900000a1 	adrp	x1, 44017000 <krhino_workqueue_create+0x6c>
    44003610:	91268021 	add	x1, x1, #0x9a0
    44003614:	b8605820 	ldr	w0, [x1, w0, uxtw #2]
    44003618:	10000061 	adr	x1, 44003624 <k_vprintf+0x1a4>
    4400361c:	8b20c820 	add	x0, x1, w0, sxtw #2
    44003620:	d61f0000 	br	x0
    44003624:	52800020 	mov	w0, #0x1                   	// #1
    44003628:	b90123e0 	str	w0, [sp, #288]
    4400362c:	17ffffef 	b	440035e8 <k_vprintf+0x168>
    44003630:	52800020 	mov	w0, #0x1                   	// #1
    44003634:	b9012fe0 	str	w0, [sp, #300]
    44003638:	17ffffec 	b	440035e8 <k_vprintf+0x168>
    4400363c:	52800020 	mov	w0, #0x1                   	// #1
    44003640:	b90127e0 	str	w0, [sp, #292]
    44003644:	17ffffe9 	b	440035e8 <k_vprintf+0x168>
    44003648:	52800020 	mov	w0, #0x1                   	// #1
    4400364c:	b90133e0 	str	w0, [sp, #304]
    44003650:	17ffffe6 	b	440035e8 <k_vprintf+0x168>
    44003654:	b94157e0 	ldr	w0, [sp, #340]
    44003658:	b900a3e0 	str	w0, [sp, #160]
    4400365c:	f9401be0 	ldr	x0, [sp, #48]
    44003660:	f100001f 	cmp	x0, #0x0
    44003664:	540000c0 	b.eq	4400367c <k_vprintf+0x1fc>  // b.none
    44003668:	f9401be2 	ldr	x2, [sp, #48]
    4400366c:	f94017e1 	ldr	x1, [sp, #40]
    44003670:	b940a3e0 	ldr	w0, [sp, #160]
    44003674:	d63f0040 	blr	x2
    44003678:	14000007 	b	44003694 <k_vprintf+0x214>
    4400367c:	f940bfe0 	ldr	x0, [sp, #376]
    44003680:	91000401 	add	x1, x0, #0x1
    44003684:	f900bfe1 	str	x1, [sp, #376]
    44003688:	b940a3e1 	ldr	w1, [sp, #160]
    4400368c:	12001c21 	and	w1, w1, #0xff
    44003690:	39000001 	strb	w1, [x0]
    44003694:	b940f7e0 	ldr	w0, [sp, #244]
    44003698:	11000400 	add	w0, w0, #0x1
    4400369c:	b900f7e0 	str	w0, [sp, #244]
    440036a0:	1400063f 	b	44004f9c <k_vprintf+0x1b1c>
    440036a4:	b94123e0 	ldr	w0, [sp, #288]
    440036a8:	7100001f 	cmp	w0, #0x0
    440036ac:	54000461 	b.ne	44003738 <k_vprintf+0x2b8>  // b.any
    440036b0:	b9401a61 	ldr	w1, [x19, #24]
    440036b4:	f9400260 	ldr	x0, [x19]
    440036b8:	7100003f 	cmp	w1, #0x0
    440036bc:	540000ab 	b.lt	440036d0 <k_vprintf+0x250>  // b.tstop
    440036c0:	91002c01 	add	x1, x0, #0xb
    440036c4:	927df021 	and	x1, x1, #0xfffffffffffffff8
    440036c8:	f9000261 	str	x1, [x19]
    440036cc:	1400000d 	b	44003700 <k_vprintf+0x280>
    440036d0:	11002022 	add	w2, w1, #0x8
    440036d4:	b9001a62 	str	w2, [x19, #24]
    440036d8:	b9401a62 	ldr	w2, [x19, #24]
    440036dc:	7100005f 	cmp	w2, #0x0
    440036e0:	540000ad 	b.le	440036f4 <k_vprintf+0x274>
    440036e4:	91002c01 	add	x1, x0, #0xb
    440036e8:	927df021 	and	x1, x1, #0xfffffffffffffff8
    440036ec:	f9000261 	str	x1, [x19]
    440036f0:	14000004 	b	44003700 <k_vprintf+0x280>
    440036f4:	f9400662 	ldr	x2, [x19, #8]
    440036f8:	93407c20 	sxtw	x0, w1
    440036fc:	8b000040 	add	x0, x2, x0
    44003700:	b9400000 	ldr	w0, [x0]
    44003704:	b90137e0 	str	w0, [sp, #308]
    44003708:	b94137e0 	ldr	w0, [sp, #308]
    4400370c:	7100001f 	cmp	w0, #0x0
    44003710:	54fff6ca 	b.ge	440035e8 <k_vprintf+0x168>  // b.tcont
    44003714:	b94133e0 	ldr	w0, [sp, #304]
    44003718:	7100001f 	cmp	w0, #0x0
    4400371c:	1a9f17e0 	cset	w0, eq  // eq = none
    44003720:	12001c00 	and	w0, w0, #0xff
    44003724:	b90133e0 	str	w0, [sp, #304]
    44003728:	b94137e0 	ldr	w0, [sp, #308]
    4400372c:	4b0003e0 	neg	w0, w0
    44003730:	b90137e0 	str	w0, [sp, #308]
    44003734:	17ffffad 	b	440035e8 <k_vprintf+0x168>
    44003738:	b9401a61 	ldr	w1, [x19, #24]
    4400373c:	f9400260 	ldr	x0, [x19]
    44003740:	7100003f 	cmp	w1, #0x0
    44003744:	540000ab 	b.lt	44003758 <k_vprintf+0x2d8>  // b.tstop
    44003748:	91002c01 	add	x1, x0, #0xb
    4400374c:	927df021 	and	x1, x1, #0xfffffffffffffff8
    44003750:	f9000261 	str	x1, [x19]
    44003754:	1400000d 	b	44003788 <k_vprintf+0x308>
    44003758:	11002022 	add	w2, w1, #0x8
    4400375c:	b9001a62 	str	w2, [x19, #24]
    44003760:	b9401a62 	ldr	w2, [x19, #24]
    44003764:	7100005f 	cmp	w2, #0x0
    44003768:	540000ad 	b.le	4400377c <k_vprintf+0x2fc>
    4400376c:	91002c01 	add	x1, x0, #0xb
    44003770:	927df021 	and	x1, x1, #0xfffffffffffffff8
    44003774:	f9000261 	str	x1, [x19]
    44003778:	14000004 	b	44003788 <k_vprintf+0x308>
    4400377c:	f9400662 	ldr	x2, [x19, #8]
    44003780:	93407c20 	sxtw	x0, w1
    44003784:	8b000040 	add	x0, x2, x0
    44003788:	b9400000 	ldr	w0, [x0]
    4400378c:	b90107e0 	str	w0, [sp, #260]
    44003790:	17ffff96 	b	440035e8 <k_vprintf+0x168>
    44003794:	b94123e0 	ldr	w0, [sp, #288]
    44003798:	7100001f 	cmp	w0, #0x0
    4400379c:	54000081 	b.ne	440037ac <k_vprintf+0x32c>  // b.any
    440037a0:	52800600 	mov	w0, #0x30                  	// #48
    440037a4:	3903ffe0 	strb	w0, [sp, #255]
    440037a8:	17ffff90 	b	440035e8 <k_vprintf+0x168>
    440037ac:	b9004fff 	str	wzr, [sp, #76]
    440037b0:	b9404fe1 	ldr	w1, [sp, #76]
    440037b4:	2a0103e0 	mov	w0, w1
    440037b8:	531e7400 	lsl	w0, w0, #2
    440037bc:	0b010000 	add	w0, w0, w1
    440037c0:	531f7800 	lsl	w0, w0, #1
    440037c4:	2a0003e1 	mov	w1, w0
    440037c8:	b94157e0 	ldr	w0, [sp, #340]
    440037cc:	0b000020 	add	w0, w1, w0
    440037d0:	5100c000 	sub	w0, w0, #0x30
    440037d4:	b9004fe0 	str	w0, [sp, #76]
    440037d8:	f9401fe0 	ldr	x0, [sp, #56]
    440037dc:	39400000 	ldrb	w0, [x0]
    440037e0:	b90157e0 	str	w0, [sp, #340]
    440037e4:	b94157e0 	ldr	w0, [sp, #340]
    440037e8:	7100bc1f 	cmp	w0, #0x2f
    440037ec:	5400010d 	b.le	4400380c <k_vprintf+0x38c>
    440037f0:	b94157e0 	ldr	w0, [sp, #340]
    440037f4:	7100e41f 	cmp	w0, #0x39
    440037f8:	540000ac 	b.gt	4400380c <k_vprintf+0x38c>
    440037fc:	f9401fe0 	ldr	x0, [sp, #56]
    44003800:	91000400 	add	x0, x0, #0x1
    44003804:	f9001fe0 	str	x0, [sp, #56]
    44003808:	17ffffea 	b	440037b0 <k_vprintf+0x330>
    4400380c:	b94123e0 	ldr	w0, [sp, #288]
    44003810:	7100001f 	cmp	w0, #0x0
    44003814:	54000080 	b.eq	44003824 <k_vprintf+0x3a4>  // b.none
    44003818:	b9404fe0 	ldr	w0, [sp, #76]
    4400381c:	b90107e0 	str	w0, [sp, #260]
    44003820:	17ffff72 	b	440035e8 <k_vprintf+0x168>
    44003824:	b9404fe0 	ldr	w0, [sp, #76]
    44003828:	b90137e0 	str	w0, [sp, #308]
    4400382c:	17ffff6f 	b	440035e8 <k_vprintf+0x168>
    44003830:	52800020 	mov	w0, #0x1                   	// #1
    44003834:	b90133e0 	str	w0, [sp, #304]
    44003838:	52800020 	mov	w0, #0x1                   	// #1
    4400383c:	b9010be0 	str	w0, [sp, #264]
    44003840:	1400026c 	b	440041f0 <k_vprintf+0xd70>
    44003844:	b94137e0 	ldr	w0, [sp, #308]
    44003848:	51000400 	sub	w0, w0, #0x1
    4400384c:	b90137e0 	str	w0, [sp, #308]
    44003850:	b94133e0 	ldr	w0, [sp, #304]
    44003854:	7100001f 	cmp	w0, #0x0
    44003858:	540003a1 	b.ne	440038cc <k_vprintf+0x44c>  // b.any
    4400385c:	b94137e0 	ldr	w0, [sp, #308]
    44003860:	7100001f 	cmp	w0, #0x0
    44003864:	5400034d 	b.le	440038cc <k_vprintf+0x44c>
    44003868:	14000014 	b	440038b8 <k_vprintf+0x438>
    4400386c:	3943ffe0 	ldrb	w0, [sp, #255]
    44003870:	b900e7e0 	str	w0, [sp, #228]
    44003874:	f9401be0 	ldr	x0, [sp, #48]
    44003878:	f100001f 	cmp	x0, #0x0
    4400387c:	540000c0 	b.eq	44003894 <k_vprintf+0x414>  // b.none
    44003880:	f9401be2 	ldr	x2, [sp, #48]
    44003884:	f94017e1 	ldr	x1, [sp, #40]
    44003888:	b940e7e0 	ldr	w0, [sp, #228]
    4400388c:	d63f0040 	blr	x2
    44003890:	14000007 	b	440038ac <k_vprintf+0x42c>
    44003894:	f940bfe0 	ldr	x0, [sp, #376]
    44003898:	91000401 	add	x1, x0, #0x1
    4400389c:	f900bfe1 	str	x1, [sp, #376]
    440038a0:	b940e7e1 	ldr	w1, [sp, #228]
    440038a4:	12001c21 	and	w1, w1, #0xff
    440038a8:	39000001 	strb	w1, [x0]
    440038ac:	b940f7e0 	ldr	w0, [sp, #244]
    440038b0:	11000400 	add	w0, w0, #0x1
    440038b4:	b900f7e0 	str	w0, [sp, #244]
    440038b8:	b94137e0 	ldr	w0, [sp, #308]
    440038bc:	51000401 	sub	w1, w0, #0x1
    440038c0:	b90137e1 	str	w1, [sp, #308]
    440038c4:	7100001f 	cmp	w0, #0x0
    440038c8:	54fffd21 	b.ne	4400386c <k_vprintf+0x3ec>  // b.any
    440038cc:	b9401a61 	ldr	w1, [x19, #24]
    440038d0:	f9400260 	ldr	x0, [x19]
    440038d4:	7100003f 	cmp	w1, #0x0
    440038d8:	540000ab 	b.lt	440038ec <k_vprintf+0x46c>  // b.tstop
    440038dc:	91002c01 	add	x1, x0, #0xb
    440038e0:	927df021 	and	x1, x1, #0xfffffffffffffff8
    440038e4:	f9000261 	str	x1, [x19]
    440038e8:	1400000d 	b	4400391c <k_vprintf+0x49c>
    440038ec:	11002022 	add	w2, w1, #0x8
    440038f0:	b9001a62 	str	w2, [x19, #24]
    440038f4:	b9401a62 	ldr	w2, [x19, #24]
    440038f8:	7100005f 	cmp	w2, #0x0
    440038fc:	540000ad 	b.le	44003910 <k_vprintf+0x490>
    44003900:	91002c01 	add	x1, x0, #0xb
    44003904:	927df021 	and	x1, x1, #0xfffffffffffffff8
    44003908:	f9000261 	str	x1, [x19]
    4400390c:	14000004 	b	4400391c <k_vprintf+0x49c>
    44003910:	f9400662 	ldr	x2, [x19, #8]
    44003914:	93407c20 	sxtw	x0, w1
    44003918:	8b000040 	add	x0, x2, x0
    4400391c:	b9400000 	ldr	w0, [x0]
    44003920:	b900e3e0 	str	w0, [sp, #224]
    44003924:	f9401be0 	ldr	x0, [sp, #48]
    44003928:	f100001f 	cmp	x0, #0x0
    4400392c:	540000c0 	b.eq	44003944 <k_vprintf+0x4c4>  // b.none
    44003930:	f9401be2 	ldr	x2, [sp, #48]
    44003934:	f94017e1 	ldr	x1, [sp, #40]
    44003938:	b940e3e0 	ldr	w0, [sp, #224]
    4400393c:	d63f0040 	blr	x2
    44003940:	14000007 	b	4400395c <k_vprintf+0x4dc>
    44003944:	f940bfe0 	ldr	x0, [sp, #376]
    44003948:	91000401 	add	x1, x0, #0x1
    4400394c:	f900bfe1 	str	x1, [sp, #376]
    44003950:	b940e3e1 	ldr	w1, [sp, #224]
    44003954:	12001c21 	and	w1, w1, #0xff
    44003958:	39000001 	strb	w1, [x0]
    4400395c:	b940f7e0 	ldr	w0, [sp, #244]
    44003960:	11000400 	add	w0, w0, #0x1
    44003964:	b900f7e0 	str	w0, [sp, #244]
    44003968:	b94133e0 	ldr	w0, [sp, #304]
    4400396c:	7100001f 	cmp	w0, #0x0
    44003970:	5400b0c0 	b.eq	44004f88 <k_vprintf+0x1b08>  // b.none
    44003974:	b94137e0 	ldr	w0, [sp, #308]
    44003978:	7100001f 	cmp	w0, #0x0
    4400397c:	5400b06d 	b.le	44004f88 <k_vprintf+0x1b08>
    44003980:	14000014 	b	440039d0 <k_vprintf+0x550>
    44003984:	3943ffe0 	ldrb	w0, [sp, #255]
    44003988:	b900dfe0 	str	w0, [sp, #220]
    4400398c:	f9401be0 	ldr	x0, [sp, #48]
    44003990:	f100001f 	cmp	x0, #0x0
    44003994:	540000c0 	b.eq	440039ac <k_vprintf+0x52c>  // b.none
    44003998:	f9401be2 	ldr	x2, [sp, #48]
    4400399c:	f94017e1 	ldr	x1, [sp, #40]
    440039a0:	b940dfe0 	ldr	w0, [sp, #220]
    440039a4:	d63f0040 	blr	x2
    440039a8:	14000007 	b	440039c4 <k_vprintf+0x544>
    440039ac:	f940bfe0 	ldr	x0, [sp, #376]
    440039b0:	91000401 	add	x1, x0, #0x1
    440039b4:	f900bfe1 	str	x1, [sp, #376]
    440039b8:	b940dfe1 	ldr	w1, [sp, #220]
    440039bc:	12001c21 	and	w1, w1, #0xff
    440039c0:	39000001 	strb	w1, [x0]
    440039c4:	b940f7e0 	ldr	w0, [sp, #244]
    440039c8:	11000400 	add	w0, w0, #0x1
    440039cc:	b900f7e0 	str	w0, [sp, #244]
    440039d0:	b94137e0 	ldr	w0, [sp, #308]
    440039d4:	51000401 	sub	w1, w0, #0x1
    440039d8:	b90137e1 	str	w1, [sp, #308]
    440039dc:	7100001f 	cmp	w0, #0x0
    440039e0:	54fffd21 	b.ne	44003984 <k_vprintf+0x504>  // b.any
    440039e4:	14000569 	b	44004f88 <k_vprintf+0x1b08>
    440039e8:	b9401a61 	ldr	w1, [x19, #24]
    440039ec:	f9400260 	ldr	x0, [x19]
    440039f0:	7100003f 	cmp	w1, #0x0
    440039f4:	540000ab 	b.lt	44003a08 <k_vprintf+0x588>  // b.tstop
    440039f8:	91003c01 	add	x1, x0, #0xf
    440039fc:	927df021 	and	x1, x1, #0xfffffffffffffff8
    44003a00:	f9000261 	str	x1, [x19]
    44003a04:	1400000d 	b	44003a38 <k_vprintf+0x5b8>
    44003a08:	11002022 	add	w2, w1, #0x8
    44003a0c:	b9001a62 	str	w2, [x19, #24]
    44003a10:	b9401a62 	ldr	w2, [x19, #24]
    44003a14:	7100005f 	cmp	w2, #0x0
    44003a18:	540000ad 	b.le	44003a2c <k_vprintf+0x5ac>
    44003a1c:	91003c01 	add	x1, x0, #0xf
    44003a20:	927df021 	and	x1, x1, #0xfffffffffffffff8
    44003a24:	f9000261 	str	x1, [x19]
    44003a28:	14000004 	b	44003a38 <k_vprintf+0x5b8>
    44003a2c:	f9400662 	ldr	x2, [x19, #8]
    44003a30:	93407c20 	sxtw	x0, w1
    44003a34:	8b000040 	add	x0, x2, x0
    44003a38:	f9400000 	ldr	x0, [x0]
    44003a3c:	f900afe0 	str	x0, [sp, #344]
    44003a40:	b9401a61 	ldr	w1, [x19, #24]
    44003a44:	f9400260 	ldr	x0, [x19]
    44003a48:	7100003f 	cmp	w1, #0x0
    44003a4c:	540000ab 	b.lt	44003a60 <k_vprintf+0x5e0>  // b.tstop
    44003a50:	91003c01 	add	x1, x0, #0xf
    44003a54:	927df021 	and	x1, x1, #0xfffffffffffffff8
    44003a58:	f9000261 	str	x1, [x19]
    44003a5c:	1400000d 	b	44003a90 <k_vprintf+0x610>
    44003a60:	11002022 	add	w2, w1, #0x8
    44003a64:	b9001a62 	str	w2, [x19, #24]
    44003a68:	b9401a62 	ldr	w2, [x19, #24]
    44003a6c:	7100005f 	cmp	w2, #0x0
    44003a70:	540000ad 	b.le	44003a84 <k_vprintf+0x604>
    44003a74:	91003c01 	add	x1, x0, #0xf
    44003a78:	927df021 	and	x1, x1, #0xfffffffffffffff8
    44003a7c:	f9000261 	str	x1, [x19]
    44003a80:	14000004 	b	44003a90 <k_vprintf+0x610>
    44003a84:	f9400662 	ldr	x2, [x19, #8]
    44003a88:	93407c20 	sxtw	x0, w1
    44003a8c:	8b000040 	add	x0, x2, x0
    44003a90:	f9400000 	ldr	x0, [x0]
    44003a94:	f900bbe0 	str	x0, [sp, #368]
    44003a98:	b94137e0 	ldr	w0, [sp, #308]
    44003a9c:	7100001f 	cmp	w0, #0x0
    44003aa0:	54000ae1 	b.ne	44003bfc <k_vprintf+0x77c>  // b.any
    44003aa4:	52800200 	mov	w0, #0x10                  	// #16
    44003aa8:	b90137e0 	str	w0, [sp, #308]
    44003aac:	14000054 	b	44003bfc <k_vprintf+0x77c>
    44003ab0:	f940afe0 	ldr	x0, [sp, #344]
    44003ab4:	39400000 	ldrb	w0, [x0]
    44003ab8:	53047c00 	lsr	w0, w0, #4
    44003abc:	12001c00 	and	w0, w0, #0xff
    44003ac0:	97fffd84 	bl	440030d0 <hex2ascii>
    44003ac4:	12001c00 	and	w0, w0, #0xff
    44003ac8:	b900afe0 	str	w0, [sp, #172]
    44003acc:	f9401be0 	ldr	x0, [sp, #48]
    44003ad0:	f100001f 	cmp	x0, #0x0
    44003ad4:	540000c0 	b.eq	44003aec <k_vprintf+0x66c>  // b.none
    44003ad8:	f9401be2 	ldr	x2, [sp, #48]
    44003adc:	f94017e1 	ldr	x1, [sp, #40]
    44003ae0:	b940afe0 	ldr	w0, [sp, #172]
    44003ae4:	d63f0040 	blr	x2
    44003ae8:	14000007 	b	44003b04 <k_vprintf+0x684>
    44003aec:	f940bfe0 	ldr	x0, [sp, #376]
    44003af0:	91000401 	add	x1, x0, #0x1
    44003af4:	f900bfe1 	str	x1, [sp, #376]
    44003af8:	b940afe1 	ldr	w1, [sp, #172]
    44003afc:	12001c21 	and	w1, w1, #0xff
    44003b00:	39000001 	strb	w1, [x0]
    44003b04:	b940f7e0 	ldr	w0, [sp, #244]
    44003b08:	11000400 	add	w0, w0, #0x1
    44003b0c:	b900f7e0 	str	w0, [sp, #244]
    44003b10:	f940afe0 	ldr	x0, [sp, #344]
    44003b14:	39400000 	ldrb	w0, [x0]
    44003b18:	12000c00 	and	w0, w0, #0xf
    44003b1c:	97fffd6d 	bl	440030d0 <hex2ascii>
    44003b20:	12001c00 	and	w0, w0, #0xff
    44003b24:	b900abe0 	str	w0, [sp, #168]
    44003b28:	f9401be0 	ldr	x0, [sp, #48]
    44003b2c:	f100001f 	cmp	x0, #0x0
    44003b30:	540000c0 	b.eq	44003b48 <k_vprintf+0x6c8>  // b.none
    44003b34:	f9401be2 	ldr	x2, [sp, #48]
    44003b38:	f94017e1 	ldr	x1, [sp, #40]
    44003b3c:	b940abe0 	ldr	w0, [sp, #168]
    44003b40:	d63f0040 	blr	x2
    44003b44:	14000007 	b	44003b60 <k_vprintf+0x6e0>
    44003b48:	f940bfe0 	ldr	x0, [sp, #376]
    44003b4c:	91000401 	add	x1, x0, #0x1
    44003b50:	f900bfe1 	str	x1, [sp, #376]
    44003b54:	b940abe1 	ldr	w1, [sp, #168]
    44003b58:	12001c21 	and	w1, w1, #0xff
    44003b5c:	39000001 	strb	w1, [x0]
    44003b60:	b940f7e0 	ldr	w0, [sp, #244]
    44003b64:	11000400 	add	w0, w0, #0x1
    44003b68:	b900f7e0 	str	w0, [sp, #244]
    44003b6c:	f940afe0 	ldr	x0, [sp, #344]
    44003b70:	91000400 	add	x0, x0, #0x1
    44003b74:	f900afe0 	str	x0, [sp, #344]
    44003b78:	b94137e0 	ldr	w0, [sp, #308]
    44003b7c:	7100001f 	cmp	w0, #0x0
    44003b80:	540003e0 	b.eq	44003bfc <k_vprintf+0x77c>  // b.none
    44003b84:	f940bbe0 	ldr	x0, [sp, #368]
    44003b88:	f900b3e0 	str	x0, [sp, #352]
    44003b8c:	14000018 	b	44003bec <k_vprintf+0x76c>
    44003b90:	f940b3e0 	ldr	x0, [sp, #352]
    44003b94:	39400000 	ldrb	w0, [x0]
    44003b98:	b900a7e0 	str	w0, [sp, #164]
    44003b9c:	f9401be0 	ldr	x0, [sp, #48]
    44003ba0:	f100001f 	cmp	x0, #0x0
    44003ba4:	540000c0 	b.eq	44003bbc <k_vprintf+0x73c>  // b.none
    44003ba8:	f9401be2 	ldr	x2, [sp, #48]
    44003bac:	f94017e1 	ldr	x1, [sp, #40]
    44003bb0:	b940a7e0 	ldr	w0, [sp, #164]
    44003bb4:	d63f0040 	blr	x2
    44003bb8:	14000007 	b	44003bd4 <k_vprintf+0x754>
    44003bbc:	f940bfe0 	ldr	x0, [sp, #376]
    44003bc0:	91000401 	add	x1, x0, #0x1
    44003bc4:	f900bfe1 	str	x1, [sp, #376]
    44003bc8:	b940a7e1 	ldr	w1, [sp, #164]
    44003bcc:	12001c21 	and	w1, w1, #0xff
    44003bd0:	39000001 	strb	w1, [x0]
    44003bd4:	b940f7e0 	ldr	w0, [sp, #244]
    44003bd8:	11000400 	add	w0, w0, #0x1
    44003bdc:	b900f7e0 	str	w0, [sp, #244]
    44003be0:	f940b3e0 	ldr	x0, [sp, #352]
    44003be4:	91000400 	add	x0, x0, #0x1
    44003be8:	f900b3e0 	str	x0, [sp, #352]
    44003bec:	f940b3e0 	ldr	x0, [sp, #352]
    44003bf0:	39400000 	ldrb	w0, [x0]
    44003bf4:	7100001f 	cmp	w0, #0x0
    44003bf8:	54fffcc1 	b.ne	44003b90 <k_vprintf+0x710>  // b.any
    44003bfc:	b94137e0 	ldr	w0, [sp, #308]
    44003c00:	51000401 	sub	w1, w0, #0x1
    44003c04:	b90137e1 	str	w1, [sp, #308]
    44003c08:	7100001f 	cmp	w0, #0x0
    44003c0c:	54fff521 	b.ne	44003ab0 <k_vprintf+0x630>  // b.any
    44003c10:	140004e3 	b	44004f9c <k_vprintf+0x1b1c>
    44003c14:	52800140 	mov	w0, #0xa                   	// #10
    44003c18:	b90147e0 	str	w0, [sp, #324]
    44003c1c:	52800020 	mov	w0, #0x1                   	// #1
    44003c20:	b90127e0 	str	w0, [sp, #292]
    44003c24:	14000264 	b	440045b4 <k_vprintf+0x1134>
    44003c28:	b9411be0 	ldr	w0, [sp, #280]
    44003c2c:	7100001f 	cmp	w0, #0x0
    44003c30:	540000a0 	b.eq	44003c44 <k_vprintf+0x7c4>  // b.none
    44003c34:	b9011bff 	str	wzr, [sp, #280]
    44003c38:	52800020 	mov	w0, #0x1                   	// #1
    44003c3c:	b9011fe0 	str	w0, [sp, #284]
    44003c40:	17fffe6a 	b	440035e8 <k_vprintf+0x168>
    44003c44:	52800020 	mov	w0, #0x1                   	// #1
    44003c48:	b9011be0 	str	w0, [sp, #280]
    44003c4c:	17fffe67 	b	440035e8 <k_vprintf+0x168>
    44003c50:	52800020 	mov	w0, #0x1                   	// #1
    44003c54:	b90117e0 	str	w0, [sp, #276]
    44003c58:	17fffe64 	b	440035e8 <k_vprintf+0x168>
    44003c5c:	b94143e0 	ldr	w0, [sp, #320]
    44003c60:	7100001f 	cmp	w0, #0x0
    44003c64:	540000a0 	b.eq	44003c78 <k_vprintf+0x7f8>  // b.none
    44003c68:	b90143ff 	str	wzr, [sp, #320]
    44003c6c:	52800020 	mov	w0, #0x1                   	// #1
    44003c70:	b9013fe0 	str	w0, [sp, #316]
    44003c74:	17fffe5d 	b	440035e8 <k_vprintf+0x168>
    44003c78:	52800020 	mov	w0, #0x1                   	// #1
    44003c7c:	b90143e0 	str	w0, [sp, #320]
    44003c80:	17fffe5a 	b	440035e8 <k_vprintf+0x168>
    44003c84:	b94117e0 	ldr	w0, [sp, #276]
    44003c88:	7100001f 	cmp	w0, #0x0
    44003c8c:	54000240 	b.eq	44003cd4 <k_vprintf+0x854>  // b.none
    44003c90:	b9401a61 	ldr	w1, [x19, #24]
    44003c94:	f9400260 	ldr	x0, [x19]
    44003c98:	7100003f 	cmp	w1, #0x0
    44003c9c:	540000ab 	b.lt	44003cb0 <k_vprintf+0x830>  // b.tstop
    44003ca0:	91003c00 	add	x0, x0, #0xf
    44003ca4:	927df000 	and	x0, x0, #0xfffffffffffffff8
    44003ca8:	f9000260 	str	x0, [x19]
    44003cac:	140004bc 	b	44004f9c <k_vprintf+0x1b1c>
    44003cb0:	11002022 	add	w2, w1, #0x8
    44003cb4:	b9001a62 	str	w2, [x19, #24]
    44003cb8:	b9401a62 	ldr	w2, [x19, #24]
    44003cbc:	7100005f 	cmp	w2, #0x0
    44003cc0:	540096ed 	b.le	44004f9c <k_vprintf+0x1b1c>
    44003cc4:	91003c00 	add	x0, x0, #0xf
    44003cc8:	927df000 	and	x0, x0, #0xfffffffffffffff8
    44003ccc:	f9000260 	str	x0, [x19]
    44003cd0:	140004b3 	b	44004f9c <k_vprintf+0x1b1c>
    44003cd4:	b9413fe0 	ldr	w0, [sp, #316]
    44003cd8:	7100001f 	cmp	w0, #0x0
    44003cdc:	54000240 	b.eq	44003d24 <k_vprintf+0x8a4>  // b.none
    44003ce0:	b9401a61 	ldr	w1, [x19, #24]
    44003ce4:	f9400260 	ldr	x0, [x19]
    44003ce8:	7100003f 	cmp	w1, #0x0
    44003cec:	540000ab 	b.lt	44003d00 <k_vprintf+0x880>  // b.tstop
    44003cf0:	91003c00 	add	x0, x0, #0xf
    44003cf4:	927df000 	and	x0, x0, #0xfffffffffffffff8
    44003cf8:	f9000260 	str	x0, [x19]
    44003cfc:	140004a8 	b	44004f9c <k_vprintf+0x1b1c>
    44003d00:	11002022 	add	w2, w1, #0x8
    44003d04:	b9001a62 	str	w2, [x19, #24]
    44003d08:	b9401a62 	ldr	w2, [x19, #24]
    44003d0c:	7100005f 	cmp	w2, #0x0
    44003d10:	5400946d 	b.le	44004f9c <k_vprintf+0x1b1c>
    44003d14:	91003c00 	add	x0, x0, #0xf
    44003d18:	927df000 	and	x0, x0, #0xfffffffffffffff8
    44003d1c:	f9000260 	str	x0, [x19]
    44003d20:	1400049f 	b	44004f9c <k_vprintf+0x1b1c>
    44003d24:	b94143e0 	ldr	w0, [sp, #320]
    44003d28:	7100001f 	cmp	w0, #0x0
    44003d2c:	54000240 	b.eq	44003d74 <k_vprintf+0x8f4>  // b.none
    44003d30:	b9401a61 	ldr	w1, [x19, #24]
    44003d34:	f9400260 	ldr	x0, [x19]
    44003d38:	7100003f 	cmp	w1, #0x0
    44003d3c:	540000ab 	b.lt	44003d50 <k_vprintf+0x8d0>  // b.tstop
    44003d40:	91003c00 	add	x0, x0, #0xf
    44003d44:	927df000 	and	x0, x0, #0xfffffffffffffff8
    44003d48:	f9000260 	str	x0, [x19]
    44003d4c:	14000494 	b	44004f9c <k_vprintf+0x1b1c>
    44003d50:	11002022 	add	w2, w1, #0x8
    44003d54:	b9001a62 	str	w2, [x19, #24]
    44003d58:	b9401a62 	ldr	w2, [x19, #24]
    44003d5c:	7100005f 	cmp	w2, #0x0
    44003d60:	540091ed 	b.le	44004f9c <k_vprintf+0x1b1c>
    44003d64:	91003c00 	add	x0, x0, #0xf
    44003d68:	927df000 	and	x0, x0, #0xfffffffffffffff8
    44003d6c:	f9000260 	str	x0, [x19]
    44003d70:	1400048b 	b	44004f9c <k_vprintf+0x1b1c>
    44003d74:	b9410fe0 	ldr	w0, [sp, #268]
    44003d78:	7100001f 	cmp	w0, #0x0
    44003d7c:	54000240 	b.eq	44003dc4 <k_vprintf+0x944>  // b.none
    44003d80:	b9401a61 	ldr	w1, [x19, #24]
    44003d84:	f9400260 	ldr	x0, [x19]
    44003d88:	7100003f 	cmp	w1, #0x0
    44003d8c:	540000ab 	b.lt	44003da0 <k_vprintf+0x920>  // b.tstop
    44003d90:	91003c00 	add	x0, x0, #0xf
    44003d94:	927df000 	and	x0, x0, #0xfffffffffffffff8
    44003d98:	f9000260 	str	x0, [x19]
    44003d9c:	14000480 	b	44004f9c <k_vprintf+0x1b1c>
    44003da0:	11002022 	add	w2, w1, #0x8
    44003da4:	b9001a62 	str	w2, [x19, #24]
    44003da8:	b9401a62 	ldr	w2, [x19, #24]
    44003dac:	7100005f 	cmp	w2, #0x0
    44003db0:	54008f6d 	b.le	44004f9c <k_vprintf+0x1b1c>
    44003db4:	91003c00 	add	x0, x0, #0xf
    44003db8:	927df000 	and	x0, x0, #0xfffffffffffffff8
    44003dbc:	f9000260 	str	x0, [x19]
    44003dc0:	14000477 	b	44004f9c <k_vprintf+0x1b1c>
    44003dc4:	b9411be0 	ldr	w0, [sp, #280]
    44003dc8:	7100001f 	cmp	w0, #0x0
    44003dcc:	54000240 	b.eq	44003e14 <k_vprintf+0x994>  // b.none
    44003dd0:	b9401a61 	ldr	w1, [x19, #24]
    44003dd4:	f9400260 	ldr	x0, [x19]
    44003dd8:	7100003f 	cmp	w1, #0x0
    44003ddc:	540000ab 	b.lt	44003df0 <k_vprintf+0x970>  // b.tstop
    44003de0:	91003c00 	add	x0, x0, #0xf
    44003de4:	927df000 	and	x0, x0, #0xfffffffffffffff8
    44003de8:	f9000260 	str	x0, [x19]
    44003dec:	1400046c 	b	44004f9c <k_vprintf+0x1b1c>
    44003df0:	11002022 	add	w2, w1, #0x8
    44003df4:	b9001a62 	str	w2, [x19, #24]
    44003df8:	b9401a62 	ldr	w2, [x19, #24]
    44003dfc:	7100005f 	cmp	w2, #0x0
    44003e00:	54008ced 	b.le	44004f9c <k_vprintf+0x1b1c>
    44003e04:	91003c00 	add	x0, x0, #0xf
    44003e08:	927df000 	and	x0, x0, #0xfffffffffffffff8
    44003e0c:	f9000260 	str	x0, [x19]
    44003e10:	14000463 	b	44004f9c <k_vprintf+0x1b1c>
    44003e14:	b9411fe0 	ldr	w0, [sp, #284]
    44003e18:	7100001f 	cmp	w0, #0x0
    44003e1c:	54000240 	b.eq	44003e64 <k_vprintf+0x9e4>  // b.none
    44003e20:	b9401a61 	ldr	w1, [x19, #24]
    44003e24:	f9400260 	ldr	x0, [x19]
    44003e28:	7100003f 	cmp	w1, #0x0
    44003e2c:	540000ab 	b.lt	44003e40 <k_vprintf+0x9c0>  // b.tstop
    44003e30:	91003c00 	add	x0, x0, #0xf
    44003e34:	927df000 	and	x0, x0, #0xfffffffffffffff8
    44003e38:	f9000260 	str	x0, [x19]
    44003e3c:	14000458 	b	44004f9c <k_vprintf+0x1b1c>
    44003e40:	11002022 	add	w2, w1, #0x8
    44003e44:	b9001a62 	str	w2, [x19, #24]
    44003e48:	b9401a62 	ldr	w2, [x19, #24]
    44003e4c:	7100005f 	cmp	w2, #0x0
    44003e50:	54008a6d 	b.le	44004f9c <k_vprintf+0x1b1c>
    44003e54:	91003c00 	add	x0, x0, #0xf
    44003e58:	927df000 	and	x0, x0, #0xfffffffffffffff8
    44003e5c:	f9000260 	str	x0, [x19]
    44003e60:	1400044f 	b	44004f9c <k_vprintf+0x1b1c>
    44003e64:	b9401a61 	ldr	w1, [x19, #24]
    44003e68:	f9400260 	ldr	x0, [x19]
    44003e6c:	7100003f 	cmp	w1, #0x0
    44003e70:	540000ab 	b.lt	44003e84 <k_vprintf+0xa04>  // b.tstop
    44003e74:	91003c00 	add	x0, x0, #0xf
    44003e78:	927df000 	and	x0, x0, #0xfffffffffffffff8
    44003e7c:	f9000260 	str	x0, [x19]
    44003e80:	14000447 	b	44004f9c <k_vprintf+0x1b1c>
    44003e84:	11002022 	add	w2, w1, #0x8
    44003e88:	b9001a62 	str	w2, [x19, #24]
    44003e8c:	b9401a62 	ldr	w2, [x19, #24]
    44003e90:	7100005f 	cmp	w2, #0x0
    44003e94:	5400884d 	b.le	44004f9c <k_vprintf+0x1b1c>
    44003e98:	91003c00 	add	x0, x0, #0xf
    44003e9c:	927df000 	and	x0, x0, #0xfffffffffffffff8
    44003ea0:	f9000260 	str	x0, [x19]
    44003ea4:	1400043e 	b	44004f9c <k_vprintf+0x1b1c>
    44003ea8:	52800100 	mov	w0, #0x8                   	// #8
    44003eac:	b90147e0 	str	w0, [sp, #324]
    44003eb0:	140000d0 	b	440041f0 <k_vprintf+0xd70>
    44003eb4:	52800200 	mov	w0, #0x10                  	// #16
    44003eb8:	b90147e0 	str	w0, [sp, #324]
    44003ebc:	b94137e0 	ldr	w0, [sp, #308]
    44003ec0:	7100001f 	cmp	w0, #0x0
    44003ec4:	1a9f17e0 	cset	w0, eq  // eq = none
    44003ec8:	12001c00 	and	w0, w0, #0xff
    44003ecc:	b9012fe0 	str	w0, [sp, #300]
    44003ed0:	b90127ff 	str	wzr, [sp, #292]
    44003ed4:	b9401a61 	ldr	w1, [x19, #24]
    44003ed8:	f9400260 	ldr	x0, [x19]
    44003edc:	7100003f 	cmp	w1, #0x0
    44003ee0:	540000ab 	b.lt	44003ef4 <k_vprintf+0xa74>  // b.tstop
    44003ee4:	91003c01 	add	x1, x0, #0xf
    44003ee8:	927df021 	and	x1, x1, #0xfffffffffffffff8
    44003eec:	f9000261 	str	x1, [x19]
    44003ef0:	1400000d 	b	44003f24 <k_vprintf+0xaa4>
    44003ef4:	11002022 	add	w2, w1, #0x8
    44003ef8:	b9001a62 	str	w2, [x19, #24]
    44003efc:	b9401a62 	ldr	w2, [x19, #24]
    44003f00:	7100005f 	cmp	w2, #0x0
    44003f04:	540000ad 	b.le	44003f18 <k_vprintf+0xa98>
    44003f08:	91003c01 	add	x1, x0, #0xf
    44003f0c:	927df021 	and	x1, x1, #0xfffffffffffffff8
    44003f10:	f9000261 	str	x1, [x19]
    44003f14:	14000004 	b	44003f24 <k_vprintf+0xaa4>
    44003f18:	f9400662 	ldr	x2, [x19, #8]
    44003f1c:	93407c20 	sxtw	x0, w1
    44003f20:	8b000040 	add	x0, x2, x0
    44003f24:	f9400000 	ldr	x0, [x0]
    44003f28:	f900a7e0 	str	x0, [sp, #328]
    44003f2c:	14000275 	b	44004900 <k_vprintf+0x1480>
    44003f30:	52800020 	mov	w0, #0x1                   	// #1
    44003f34:	b9013fe0 	str	w0, [sp, #316]
    44003f38:	17fffdac 	b	440035e8 <k_vprintf+0x168>
    44003f3c:	b94027e0 	ldr	w0, [sp, #36]
    44003f40:	b90147e0 	str	w0, [sp, #324]
    44003f44:	b94127e0 	ldr	w0, [sp, #292]
    44003f48:	7100001f 	cmp	w0, #0x0
    44003f4c:	54001500 	b.eq	440041ec <k_vprintf+0xd6c>  // b.none
    44003f50:	14000199 	b	440045b4 <k_vprintf+0x1134>
    44003f54:	b9401a61 	ldr	w1, [x19, #24]
    44003f58:	f9400260 	ldr	x0, [x19]
    44003f5c:	7100003f 	cmp	w1, #0x0
    44003f60:	540000ab 	b.lt	44003f74 <k_vprintf+0xaf4>  // b.tstop
    44003f64:	91003c01 	add	x1, x0, #0xf
    44003f68:	927df021 	and	x1, x1, #0xfffffffffffffff8
    44003f6c:	f9000261 	str	x1, [x19]
    44003f70:	1400000d 	b	44003fa4 <k_vprintf+0xb24>
    44003f74:	11002022 	add	w2, w1, #0x8
    44003f78:	b9001a62 	str	w2, [x19, #24]
    44003f7c:	b9401a62 	ldr	w2, [x19, #24]
    44003f80:	7100005f 	cmp	w2, #0x0
    44003f84:	540000ad 	b.le	44003f98 <k_vprintf+0xb18>
    44003f88:	91003c01 	add	x1, x0, #0xf
    44003f8c:	927df021 	and	x1, x1, #0xfffffffffffffff8
    44003f90:	f9000261 	str	x1, [x19]
    44003f94:	14000004 	b	44003fa4 <k_vprintf+0xb24>
    44003f98:	f9400662 	ldr	x2, [x19, #8]
    44003f9c:	93407c20 	sxtw	x0, w1
    44003fa0:	8b000040 	add	x0, x2, x0
    44003fa4:	f9400000 	ldr	x0, [x0]
    44003fa8:	f900bbe0 	str	x0, [sp, #368]
    44003fac:	f940bbe0 	ldr	x0, [sp, #368]
    44003fb0:	f100001f 	cmp	x0, #0x0
    44003fb4:	54000081 	b.ne	44003fc4 <k_vprintf+0xb44>  // b.any
    44003fb8:	900000a0 	adrp	x0, 44017000 <krhino_workqueue_create+0x6c>
    44003fbc:	91266000 	add	x0, x0, #0x998
    44003fc0:	f900bbe0 	str	x0, [sp, #368]
    44003fc4:	b94123e0 	ldr	w0, [sp, #288]
    44003fc8:	7100001f 	cmp	w0, #0x0
    44003fcc:	540000a1 	b.ne	44003fe0 <k_vprintf+0xb60>  // b.any
    44003fd0:	f940bbe0 	ldr	x0, [sp, #368]
    44003fd4:	97fffadc 	bl	44002b44 <strlen>
    44003fd8:	b9004fe0 	str	w0, [sp, #76]
    44003fdc:	14000012 	b	44004024 <k_vprintf+0xba4>
    44003fe0:	b9004fff 	str	wzr, [sp, #76]
    44003fe4:	14000005 	b	44003ff8 <k_vprintf+0xb78>
    44003fe8:	d503201f 	nop
    44003fec:	b9404fe0 	ldr	w0, [sp, #76]
    44003ff0:	11000400 	add	w0, w0, #0x1
    44003ff4:	b9004fe0 	str	w0, [sp, #76]
    44003ff8:	b9404fe0 	ldr	w0, [sp, #76]
    44003ffc:	b94107e1 	ldr	w1, [sp, #260]
    44004000:	6b00003f 	cmp	w1, w0
    44004004:	5400010d 	b.le	44004024 <k_vprintf+0xba4>
    44004008:	b9404fe0 	ldr	w0, [sp, #76]
    4400400c:	93407c00 	sxtw	x0, w0
    44004010:	f940bbe1 	ldr	x1, [sp, #368]
    44004014:	8b000020 	add	x0, x1, x0
    44004018:	39400000 	ldrb	w0, [x0]
    4400401c:	7100001f 	cmp	w0, #0x0
    44004020:	54fffe41 	b.ne	44003fe8 <k_vprintf+0xb68>  // b.any
    44004024:	b9404fe0 	ldr	w0, [sp, #76]
    44004028:	b94137e1 	ldr	w1, [sp, #308]
    4400402c:	4b000020 	sub	w0, w1, w0
    44004030:	b90137e0 	str	w0, [sp, #308]
    44004034:	b94133e0 	ldr	w0, [sp, #304]
    44004038:	7100001f 	cmp	w0, #0x0
    4400403c:	54000681 	b.ne	4400410c <k_vprintf+0xc8c>  // b.any
    44004040:	b94137e0 	ldr	w0, [sp, #308]
    44004044:	7100001f 	cmp	w0, #0x0
    44004048:	5400062d 	b.le	4400410c <k_vprintf+0xc8c>
    4400404c:	14000014 	b	4400409c <k_vprintf+0xc1c>
    44004050:	3943ffe0 	ldrb	w0, [sp, #255]
    44004054:	b900f3e0 	str	w0, [sp, #240]
    44004058:	f9401be0 	ldr	x0, [sp, #48]
    4400405c:	f100001f 	cmp	x0, #0x0
    44004060:	540000c0 	b.eq	44004078 <k_vprintf+0xbf8>  // b.none
    44004064:	f9401be2 	ldr	x2, [sp, #48]
    44004068:	f94017e1 	ldr	x1, [sp, #40]
    4400406c:	b940f3e0 	ldr	w0, [sp, #240]
    44004070:	d63f0040 	blr	x2
    44004074:	14000007 	b	44004090 <k_vprintf+0xc10>
    44004078:	f940bfe0 	ldr	x0, [sp, #376]
    4400407c:	91000401 	add	x1, x0, #0x1
    44004080:	f900bfe1 	str	x1, [sp, #376]
    44004084:	b940f3e1 	ldr	w1, [sp, #240]
    44004088:	12001c21 	and	w1, w1, #0xff
    4400408c:	39000001 	strb	w1, [x0]
    44004090:	b940f7e0 	ldr	w0, [sp, #244]
    44004094:	11000400 	add	w0, w0, #0x1
    44004098:	b900f7e0 	str	w0, [sp, #244]
    4400409c:	b94137e0 	ldr	w0, [sp, #308]
    440040a0:	51000401 	sub	w1, w0, #0x1
    440040a4:	b90137e1 	str	w1, [sp, #308]
    440040a8:	7100001f 	cmp	w0, #0x0
    440040ac:	54fffd21 	b.ne	44004050 <k_vprintf+0xbd0>  // b.any
    440040b0:	14000017 	b	4400410c <k_vprintf+0xc8c>
    440040b4:	f940bbe0 	ldr	x0, [sp, #368]
    440040b8:	91000401 	add	x1, x0, #0x1
    440040bc:	f900bbe1 	str	x1, [sp, #368]
    440040c0:	39400000 	ldrb	w0, [x0]
    440040c4:	b900ebe0 	str	w0, [sp, #232]
    440040c8:	f9401be0 	ldr	x0, [sp, #48]
    440040cc:	f100001f 	cmp	x0, #0x0
    440040d0:	540000c0 	b.eq	440040e8 <k_vprintf+0xc68>  // b.none
    440040d4:	f9401be2 	ldr	x2, [sp, #48]
    440040d8:	f94017e1 	ldr	x1, [sp, #40]
    440040dc:	b940ebe0 	ldr	w0, [sp, #232]
    440040e0:	d63f0040 	blr	x2
    440040e4:	14000007 	b	44004100 <k_vprintf+0xc80>
    440040e8:	f940bfe0 	ldr	x0, [sp, #376]
    440040ec:	91000401 	add	x1, x0, #0x1
    440040f0:	f900bfe1 	str	x1, [sp, #376]
    440040f4:	b940ebe1 	ldr	w1, [sp, #232]
    440040f8:	12001c21 	and	w1, w1, #0xff
    440040fc:	39000001 	strb	w1, [x0]
    44004100:	b940f7e0 	ldr	w0, [sp, #244]
    44004104:	11000400 	add	w0, w0, #0x1
    44004108:	b900f7e0 	str	w0, [sp, #244]
    4400410c:	b9404fe0 	ldr	w0, [sp, #76]
    44004110:	51000401 	sub	w1, w0, #0x1
    44004114:	b9004fe1 	str	w1, [sp, #76]
    44004118:	7100001f 	cmp	w0, #0x0
    4400411c:	54fffcc1 	b.ne	440040b4 <k_vprintf+0xc34>  // b.any
    44004120:	b94133e0 	ldr	w0, [sp, #304]
    44004124:	7100001f 	cmp	w0, #0x0
    44004128:	54007340 	b.eq	44004f90 <k_vprintf+0x1b10>  // b.none
    4400412c:	b94137e0 	ldr	w0, [sp, #308]
    44004130:	7100001f 	cmp	w0, #0x0
    44004134:	540072ed 	b.le	44004f90 <k_vprintf+0x1b10>
    44004138:	14000014 	b	44004188 <k_vprintf+0xd08>
    4400413c:	3943ffe0 	ldrb	w0, [sp, #255]
    44004140:	b900efe0 	str	w0, [sp, #236]
    44004144:	f9401be0 	ldr	x0, [sp, #48]
    44004148:	f100001f 	cmp	x0, #0x0
    4400414c:	540000c0 	b.eq	44004164 <k_vprintf+0xce4>  // b.none
    44004150:	f9401be2 	ldr	x2, [sp, #48]
    44004154:	f94017e1 	ldr	x1, [sp, #40]
    44004158:	b940efe0 	ldr	w0, [sp, #236]
    4400415c:	d63f0040 	blr	x2
    44004160:	14000007 	b	4400417c <k_vprintf+0xcfc>
    44004164:	f940bfe0 	ldr	x0, [sp, #376]
    44004168:	91000401 	add	x1, x0, #0x1
    4400416c:	f900bfe1 	str	x1, [sp, #376]
    44004170:	b940efe1 	ldr	w1, [sp, #236]
    44004174:	12001c21 	and	w1, w1, #0xff
    44004178:	39000001 	strb	w1, [x0]
    4400417c:	b940f7e0 	ldr	w0, [sp, #244]
    44004180:	11000400 	add	w0, w0, #0x1
    44004184:	b900f7e0 	str	w0, [sp, #244]
    44004188:	b94137e0 	ldr	w0, [sp, #308]
    4400418c:	51000401 	sub	w1, w0, #0x1
    44004190:	b90137e1 	str	w1, [sp, #308]
    44004194:	7100001f 	cmp	w0, #0x0
    44004198:	54fffd21 	b.ne	4400413c <k_vprintf+0xcbc>  // b.any
    4400419c:	1400037d 	b	44004f90 <k_vprintf+0x1b10>
    440041a0:	52800020 	mov	w0, #0x1                   	// #1
    440041a4:	b90113e0 	str	w0, [sp, #272]
    440041a8:	17fffd10 	b	440035e8 <k_vprintf+0x168>
    440041ac:	52800140 	mov	w0, #0xa                   	// #10
    440041b0:	b90147e0 	str	w0, [sp, #324]
    440041b4:	1400000f 	b	440041f0 <k_vprintf+0xd70>
    440041b8:	52800020 	mov	w0, #0x1                   	// #1
    440041bc:	b90103e0 	str	w0, [sp, #256]
    440041c0:	52800200 	mov	w0, #0x10                  	// #16
    440041c4:	b90147e0 	str	w0, [sp, #324]
    440041c8:	1400000a 	b	440041f0 <k_vprintf+0xd70>
    440041cc:	52800200 	mov	w0, #0x10                  	// #16
    440041d0:	b90147e0 	str	w0, [sp, #324]
    440041d4:	52800020 	mov	w0, #0x1                   	// #1
    440041d8:	b90127e0 	str	w0, [sp, #292]
    440041dc:	140000f6 	b	440045b4 <k_vprintf+0x1134>
    440041e0:	52800020 	mov	w0, #0x1                   	// #1
    440041e4:	b9010fe0 	str	w0, [sp, #268]
    440041e8:	17fffd00 	b	440035e8 <k_vprintf+0x168>
    440041ec:	d503201f 	nop
    440041f0:	b90127ff 	str	wzr, [sp, #292]
    440041f4:	b94117e0 	ldr	w0, [sp, #276]
    440041f8:	7100001f 	cmp	w0, #0x0
    440041fc:	54000300 	b.eq	4400425c <k_vprintf+0xddc>  // b.none
    44004200:	b9401a61 	ldr	w1, [x19, #24]
    44004204:	f9400260 	ldr	x0, [x19]
    44004208:	7100003f 	cmp	w1, #0x0
    4400420c:	540000ab 	b.lt	44004220 <k_vprintf+0xda0>  // b.tstop
    44004210:	91003c01 	add	x1, x0, #0xf
    44004214:	927df021 	and	x1, x1, #0xfffffffffffffff8
    44004218:	f9000261 	str	x1, [x19]
    4400421c:	1400000d 	b	44004250 <k_vprintf+0xdd0>
    44004220:	11002022 	add	w2, w1, #0x8
    44004224:	b9001a62 	str	w2, [x19, #24]
    44004228:	b9401a62 	ldr	w2, [x19, #24]
    4400422c:	7100005f 	cmp	w2, #0x0
    44004230:	540000ad 	b.le	44004244 <k_vprintf+0xdc4>
    44004234:	91003c01 	add	x1, x0, #0xf
    44004238:	927df021 	and	x1, x1, #0xfffffffffffffff8
    4400423c:	f9000261 	str	x1, [x19]
    44004240:	14000004 	b	44004250 <k_vprintf+0xdd0>
    44004244:	f9400662 	ldr	x2, [x19, #8]
    44004248:	93407c20 	sxtw	x0, w1
    4400424c:	8b000040 	add	x0, x2, x0
    44004250:	f9400000 	ldr	x0, [x0]
    44004254:	f900a7e0 	str	x0, [sp, #328]
    44004258:	140000b8 	b	44004538 <k_vprintf+0x10b8>
    4400425c:	b9413fe0 	ldr	w0, [sp, #316]
    44004260:	7100001f 	cmp	w0, #0x0
    44004264:	54000300 	b.eq	440042c4 <k_vprintf+0xe44>  // b.none
    44004268:	b9401a61 	ldr	w1, [x19, #24]
    4400426c:	f9400260 	ldr	x0, [x19]
    44004270:	7100003f 	cmp	w1, #0x0
    44004274:	540000ab 	b.lt	44004288 <k_vprintf+0xe08>  // b.tstop
    44004278:	91003c01 	add	x1, x0, #0xf
    4400427c:	927df021 	and	x1, x1, #0xfffffffffffffff8
    44004280:	f9000261 	str	x1, [x19]
    44004284:	1400000d 	b	440042b8 <k_vprintf+0xe38>
    44004288:	11002022 	add	w2, w1, #0x8
    4400428c:	b9001a62 	str	w2, [x19, #24]
    44004290:	b9401a62 	ldr	w2, [x19, #24]
    44004294:	7100005f 	cmp	w2, #0x0
    44004298:	540000ad 	b.le	440042ac <k_vprintf+0xe2c>
    4400429c:	91003c01 	add	x1, x0, #0xf
    440042a0:	927df021 	and	x1, x1, #0xfffffffffffffff8
    440042a4:	f9000261 	str	x1, [x19]
    440042a8:	14000004 	b	440042b8 <k_vprintf+0xe38>
    440042ac:	f9400662 	ldr	x2, [x19, #8]
    440042b0:	93407c20 	sxtw	x0, w1
    440042b4:	8b000040 	add	x0, x2, x0
    440042b8:	f9400000 	ldr	x0, [x0]
    440042bc:	f900a7e0 	str	x0, [sp, #328]
    440042c0:	1400009e 	b	44004538 <k_vprintf+0x10b8>
    440042c4:	b94113e0 	ldr	w0, [sp, #272]
    440042c8:	7100001f 	cmp	w0, #0x0
    440042cc:	54000300 	b.eq	4400432c <k_vprintf+0xeac>  // b.none
    440042d0:	b9401a61 	ldr	w1, [x19, #24]
    440042d4:	f9400260 	ldr	x0, [x19]
    440042d8:	7100003f 	cmp	w1, #0x0
    440042dc:	540000ab 	b.lt	440042f0 <k_vprintf+0xe70>  // b.tstop
    440042e0:	91003c01 	add	x1, x0, #0xf
    440042e4:	927df021 	and	x1, x1, #0xfffffffffffffff8
    440042e8:	f9000261 	str	x1, [x19]
    440042ec:	1400000d 	b	44004320 <k_vprintf+0xea0>
    440042f0:	11002022 	add	w2, w1, #0x8
    440042f4:	b9001a62 	str	w2, [x19, #24]
    440042f8:	b9401a62 	ldr	w2, [x19, #24]
    440042fc:	7100005f 	cmp	w2, #0x0
    44004300:	540000ad 	b.le	44004314 <k_vprintf+0xe94>
    44004304:	91003c01 	add	x1, x0, #0xf
    44004308:	927df021 	and	x1, x1, #0xfffffffffffffff8
    4400430c:	f9000261 	str	x1, [x19]
    44004310:	14000004 	b	44004320 <k_vprintf+0xea0>
    44004314:	f9400662 	ldr	x2, [x19, #8]
    44004318:	93407c20 	sxtw	x0, w1
    4400431c:	8b000040 	add	x0, x2, x0
    44004320:	f9400000 	ldr	x0, [x0]
    44004324:	f900a7e0 	str	x0, [sp, #328]
    44004328:	14000084 	b	44004538 <k_vprintf+0x10b8>
    4400432c:	b94143e0 	ldr	w0, [sp, #320]
    44004330:	7100001f 	cmp	w0, #0x0
    44004334:	54000300 	b.eq	44004394 <k_vprintf+0xf14>  // b.none
    44004338:	b9401a61 	ldr	w1, [x19, #24]
    4400433c:	f9400260 	ldr	x0, [x19]
    44004340:	7100003f 	cmp	w1, #0x0
    44004344:	540000ab 	b.lt	44004358 <k_vprintf+0xed8>  // b.tstop
    44004348:	91003c01 	add	x1, x0, #0xf
    4400434c:	927df021 	and	x1, x1, #0xfffffffffffffff8
    44004350:	f9000261 	str	x1, [x19]
    44004354:	1400000d 	b	44004388 <k_vprintf+0xf08>
    44004358:	11002022 	add	w2, w1, #0x8
    4400435c:	b9001a62 	str	w2, [x19, #24]
    44004360:	b9401a62 	ldr	w2, [x19, #24]
    44004364:	7100005f 	cmp	w2, #0x0
    44004368:	540000ad 	b.le	4400437c <k_vprintf+0xefc>
    4400436c:	91003c01 	add	x1, x0, #0xf
    44004370:	927df021 	and	x1, x1, #0xfffffffffffffff8
    44004374:	f9000261 	str	x1, [x19]
    44004378:	14000004 	b	44004388 <k_vprintf+0xf08>
    4400437c:	f9400662 	ldr	x2, [x19, #8]
    44004380:	93407c20 	sxtw	x0, w1
    44004384:	8b000040 	add	x0, x2, x0
    44004388:	f9400000 	ldr	x0, [x0]
    4400438c:	f900a7e0 	str	x0, [sp, #328]
    44004390:	1400006a 	b	44004538 <k_vprintf+0x10b8>
    44004394:	b9410fe0 	ldr	w0, [sp, #268]
    44004398:	7100001f 	cmp	w0, #0x0
    4400439c:	54000300 	b.eq	440043fc <k_vprintf+0xf7c>  // b.none
    440043a0:	b9401a61 	ldr	w1, [x19, #24]
    440043a4:	f9400260 	ldr	x0, [x19]
    440043a8:	7100003f 	cmp	w1, #0x0
    440043ac:	540000ab 	b.lt	440043c0 <k_vprintf+0xf40>  // b.tstop
    440043b0:	91003c01 	add	x1, x0, #0xf
    440043b4:	927df021 	and	x1, x1, #0xfffffffffffffff8
    440043b8:	f9000261 	str	x1, [x19]
    440043bc:	1400000d 	b	440043f0 <k_vprintf+0xf70>
    440043c0:	11002022 	add	w2, w1, #0x8
    440043c4:	b9001a62 	str	w2, [x19, #24]
    440043c8:	b9401a62 	ldr	w2, [x19, #24]
    440043cc:	7100005f 	cmp	w2, #0x0
    440043d0:	540000ad 	b.le	440043e4 <k_vprintf+0xf64>
    440043d4:	91003c01 	add	x1, x0, #0xf
    440043d8:	927df021 	and	x1, x1, #0xfffffffffffffff8
    440043dc:	f9000261 	str	x1, [x19]
    440043e0:	14000004 	b	440043f0 <k_vprintf+0xf70>
    440043e4:	f9400662 	ldr	x2, [x19, #8]
    440043e8:	93407c20 	sxtw	x0, w1
    440043ec:	8b000040 	add	x0, x2, x0
    440043f0:	f9400000 	ldr	x0, [x0]
    440043f4:	f900a7e0 	str	x0, [sp, #328]
    440043f8:	14000050 	b	44004538 <k_vprintf+0x10b8>
    440043fc:	b9411be0 	ldr	w0, [sp, #280]
    44004400:	7100001f 	cmp	w0, #0x0
    44004404:	54000340 	b.eq	4400446c <k_vprintf+0xfec>  // b.none
    44004408:	b9401a61 	ldr	w1, [x19, #24]
    4400440c:	f9400260 	ldr	x0, [x19]
    44004410:	7100003f 	cmp	w1, #0x0
    44004414:	540000ab 	b.lt	44004428 <k_vprintf+0xfa8>  // b.tstop
    44004418:	91002c01 	add	x1, x0, #0xb
    4400441c:	927df021 	and	x1, x1, #0xfffffffffffffff8
    44004420:	f9000261 	str	x1, [x19]
    44004424:	1400000d 	b	44004458 <k_vprintf+0xfd8>
    44004428:	11002022 	add	w2, w1, #0x8
    4400442c:	b9001a62 	str	w2, [x19, #24]
    44004430:	b9401a62 	ldr	w2, [x19, #24]
    44004434:	7100005f 	cmp	w2, #0x0
    44004438:	540000ad 	b.le	4400444c <k_vprintf+0xfcc>
    4400443c:	91002c01 	add	x1, x0, #0xb
    44004440:	927df021 	and	x1, x1, #0xfffffffffffffff8
    44004444:	f9000261 	str	x1, [x19]
    44004448:	14000004 	b	44004458 <k_vprintf+0xfd8>
    4400444c:	f9400662 	ldr	x2, [x19, #8]
    44004450:	93407c20 	sxtw	x0, w1
    44004454:	8b000040 	add	x0, x2, x0
    44004458:	b9400000 	ldr	w0, [x0]
    4400445c:	12003c00 	and	w0, w0, #0xffff
    44004460:	92403c00 	and	x0, x0, #0xffff
    44004464:	f900a7e0 	str	x0, [sp, #328]
    44004468:	14000034 	b	44004538 <k_vprintf+0x10b8>
    4400446c:	b9411fe0 	ldr	w0, [sp, #284]
    44004470:	7100001f 	cmp	w0, #0x0
    44004474:	54000340 	b.eq	440044dc <k_vprintf+0x105c>  // b.none
    44004478:	b9401a61 	ldr	w1, [x19, #24]
    4400447c:	f9400260 	ldr	x0, [x19]
    44004480:	7100003f 	cmp	w1, #0x0
    44004484:	540000ab 	b.lt	44004498 <k_vprintf+0x1018>  // b.tstop
    44004488:	91002c01 	add	x1, x0, #0xb
    4400448c:	927df021 	and	x1, x1, #0xfffffffffffffff8
    44004490:	f9000261 	str	x1, [x19]
    44004494:	1400000d 	b	440044c8 <k_vprintf+0x1048>
    44004498:	11002022 	add	w2, w1, #0x8
    4400449c:	b9001a62 	str	w2, [x19, #24]
    440044a0:	b9401a62 	ldr	w2, [x19, #24]
    440044a4:	7100005f 	cmp	w2, #0x0
    440044a8:	540000ad 	b.le	440044bc <k_vprintf+0x103c>
    440044ac:	91002c01 	add	x1, x0, #0xb
    440044b0:	927df021 	and	x1, x1, #0xfffffffffffffff8
    440044b4:	f9000261 	str	x1, [x19]
    440044b8:	14000004 	b	440044c8 <k_vprintf+0x1048>
    440044bc:	f9400662 	ldr	x2, [x19, #8]
    440044c0:	93407c20 	sxtw	x0, w1
    440044c4:	8b000040 	add	x0, x2, x0
    440044c8:	b9400000 	ldr	w0, [x0]
    440044cc:	12001c00 	and	w0, w0, #0xff
    440044d0:	92401c00 	and	x0, x0, #0xff
    440044d4:	f900a7e0 	str	x0, [sp, #328]
    440044d8:	14000018 	b	44004538 <k_vprintf+0x10b8>
    440044dc:	b9401a61 	ldr	w1, [x19, #24]
    440044e0:	f9400260 	ldr	x0, [x19]
    440044e4:	7100003f 	cmp	w1, #0x0
    440044e8:	540000ab 	b.lt	440044fc <k_vprintf+0x107c>  // b.tstop
    440044ec:	91002c01 	add	x1, x0, #0xb
    440044f0:	927df021 	and	x1, x1, #0xfffffffffffffff8
    440044f4:	f9000261 	str	x1, [x19]
    440044f8:	1400000d 	b	4400452c <k_vprintf+0x10ac>
    440044fc:	11002022 	add	w2, w1, #0x8
    44004500:	b9001a62 	str	w2, [x19, #24]
    44004504:	b9401a62 	ldr	w2, [x19, #24]
    44004508:	7100005f 	cmp	w2, #0x0
    4400450c:	540000ad 	b.le	44004520 <k_vprintf+0x10a0>
    44004510:	91002c01 	add	x1, x0, #0xb
    44004514:	927df021 	and	x1, x1, #0xfffffffffffffff8
    44004518:	f9000261 	str	x1, [x19]
    4400451c:	14000004 	b	4400452c <k_vprintf+0x10ac>
    44004520:	f9400662 	ldr	x2, [x19, #8]
    44004524:	93407c20 	sxtw	x0, w1
    44004528:	8b000040 	add	x0, x2, x0
    4400452c:	b9400000 	ldr	w0, [x0]
    44004530:	2a0003e0 	mov	w0, w0
    44004534:	f900a7e0 	str	x0, [sp, #328]
    44004538:	b9410be0 	ldr	w0, [sp, #264]
    4400453c:	7100001f 	cmp	w0, #0x0
    44004540:	54001de0 	b.eq	440048fc <k_vprintf+0x147c>  // b.none
    44004544:	b9401a61 	ldr	w1, [x19, #24]
    44004548:	f9400260 	ldr	x0, [x19]
    4400454c:	7100003f 	cmp	w1, #0x0
    44004550:	540000ab 	b.lt	44004564 <k_vprintf+0x10e4>  // b.tstop
    44004554:	91003c01 	add	x1, x0, #0xf
    44004558:	927df021 	and	x1, x1, #0xfffffffffffffff8
    4400455c:	f9000261 	str	x1, [x19]
    44004560:	1400000d 	b	44004594 <k_vprintf+0x1114>
    44004564:	11002022 	add	w2, w1, #0x8
    44004568:	b9001a62 	str	w2, [x19, #24]
    4400456c:	b9401a62 	ldr	w2, [x19, #24]
    44004570:	7100005f 	cmp	w2, #0x0
    44004574:	540000ad 	b.le	44004588 <k_vprintf+0x1108>
    44004578:	91003c01 	add	x1, x0, #0xf
    4400457c:	927df021 	and	x1, x1, #0xfffffffffffffff8
    44004580:	f9000261 	str	x1, [x19]
    44004584:	14000004 	b	44004594 <k_vprintf+0x1114>
    44004588:	f9400662 	ldr	x2, [x19, #8]
    4400458c:	93407c20 	sxtw	x0, w1
    44004590:	8b000040 	add	x0, x2, x0
    44004594:	f9400000 	ldr	x0, [x0]
    44004598:	f900b3e0 	str	x0, [sp, #352]
    4400459c:	f940b3e0 	ldr	x0, [sp, #352]
    440045a0:	91000401 	add	x1, x0, #0x1
    440045a4:	f900b3e1 	str	x1, [sp, #352]
    440045a8:	39400000 	ldrb	w0, [x0]
    440045ac:	b90147e0 	str	w0, [sp, #324]
    440045b0:	140000d3 	b	440048fc <k_vprintf+0x147c>
    440045b4:	b94117e0 	ldr	w0, [sp, #276]
    440045b8:	7100001f 	cmp	w0, #0x0
    440045bc:	54000300 	b.eq	4400461c <k_vprintf+0x119c>  // b.none
    440045c0:	b9401a61 	ldr	w1, [x19, #24]
    440045c4:	f9400260 	ldr	x0, [x19]
    440045c8:	7100003f 	cmp	w1, #0x0
    440045cc:	540000ab 	b.lt	440045e0 <k_vprintf+0x1160>  // b.tstop
    440045d0:	91003c01 	add	x1, x0, #0xf
    440045d4:	927df021 	and	x1, x1, #0xfffffffffffffff8
    440045d8:	f9000261 	str	x1, [x19]
    440045dc:	1400000d 	b	44004610 <k_vprintf+0x1190>
    440045e0:	11002022 	add	w2, w1, #0x8
    440045e4:	b9001a62 	str	w2, [x19, #24]
    440045e8:	b9401a62 	ldr	w2, [x19, #24]
    440045ec:	7100005f 	cmp	w2, #0x0
    440045f0:	540000ad 	b.le	44004604 <k_vprintf+0x1184>
    440045f4:	91003c01 	add	x1, x0, #0xf
    440045f8:	927df021 	and	x1, x1, #0xfffffffffffffff8
    440045fc:	f9000261 	str	x1, [x19]
    44004600:	14000004 	b	44004610 <k_vprintf+0x1190>
    44004604:	f9400662 	ldr	x2, [x19, #8]
    44004608:	93407c20 	sxtw	x0, w1
    4400460c:	8b000040 	add	x0, x2, x0
    44004610:	f9400000 	ldr	x0, [x0]
    44004614:	f900a7e0 	str	x0, [sp, #328]
    44004618:	140000ba 	b	44004900 <k_vprintf+0x1480>
    4400461c:	b9413fe0 	ldr	w0, [sp, #316]
    44004620:	7100001f 	cmp	w0, #0x0
    44004624:	54000300 	b.eq	44004684 <k_vprintf+0x1204>  // b.none
    44004628:	b9401a61 	ldr	w1, [x19, #24]
    4400462c:	f9400260 	ldr	x0, [x19]
    44004630:	7100003f 	cmp	w1, #0x0
    44004634:	540000ab 	b.lt	44004648 <k_vprintf+0x11c8>  // b.tstop
    44004638:	91003c01 	add	x1, x0, #0xf
    4400463c:	927df021 	and	x1, x1, #0xfffffffffffffff8
    44004640:	f9000261 	str	x1, [x19]
    44004644:	1400000d 	b	44004678 <k_vprintf+0x11f8>
    44004648:	11002022 	add	w2, w1, #0x8
    4400464c:	b9001a62 	str	w2, [x19, #24]
    44004650:	b9401a62 	ldr	w2, [x19, #24]
    44004654:	7100005f 	cmp	w2, #0x0
    44004658:	540000ad 	b.le	4400466c <k_vprintf+0x11ec>
    4400465c:	91003c01 	add	x1, x0, #0xf
    44004660:	927df021 	and	x1, x1, #0xfffffffffffffff8
    44004664:	f9000261 	str	x1, [x19]
    44004668:	14000004 	b	44004678 <k_vprintf+0x11f8>
    4400466c:	f9400662 	ldr	x2, [x19, #8]
    44004670:	93407c20 	sxtw	x0, w1
    44004674:	8b000040 	add	x0, x2, x0
    44004678:	f9400000 	ldr	x0, [x0]
    4400467c:	f900a7e0 	str	x0, [sp, #328]
    44004680:	140000a0 	b	44004900 <k_vprintf+0x1480>
    44004684:	b94113e0 	ldr	w0, [sp, #272]
    44004688:	7100001f 	cmp	w0, #0x0
    4400468c:	54000300 	b.eq	440046ec <k_vprintf+0x126c>  // b.none
    44004690:	b9401a61 	ldr	w1, [x19, #24]
    44004694:	f9400260 	ldr	x0, [x19]
    44004698:	7100003f 	cmp	w1, #0x0
    4400469c:	540000ab 	b.lt	440046b0 <k_vprintf+0x1230>  // b.tstop
    440046a0:	91003c01 	add	x1, x0, #0xf
    440046a4:	927df021 	and	x1, x1, #0xfffffffffffffff8
    440046a8:	f9000261 	str	x1, [x19]
    440046ac:	1400000d 	b	440046e0 <k_vprintf+0x1260>
    440046b0:	11002022 	add	w2, w1, #0x8
    440046b4:	b9001a62 	str	w2, [x19, #24]
    440046b8:	b9401a62 	ldr	w2, [x19, #24]
    440046bc:	7100005f 	cmp	w2, #0x0
    440046c0:	540000ad 	b.le	440046d4 <k_vprintf+0x1254>
    440046c4:	91003c01 	add	x1, x0, #0xf
    440046c8:	927df021 	and	x1, x1, #0xfffffffffffffff8
    440046cc:	f9000261 	str	x1, [x19]
    440046d0:	14000004 	b	440046e0 <k_vprintf+0x1260>
    440046d4:	f9400662 	ldr	x2, [x19, #8]
    440046d8:	93407c20 	sxtw	x0, w1
    440046dc:	8b000040 	add	x0, x2, x0
    440046e0:	f9400000 	ldr	x0, [x0]
    440046e4:	f900a7e0 	str	x0, [sp, #328]
    440046e8:	14000086 	b	44004900 <k_vprintf+0x1480>
    440046ec:	b94143e0 	ldr	w0, [sp, #320]
    440046f0:	7100001f 	cmp	w0, #0x0
    440046f4:	54000300 	b.eq	44004754 <k_vprintf+0x12d4>  // b.none
    440046f8:	b9401a61 	ldr	w1, [x19, #24]
    440046fc:	f9400260 	ldr	x0, [x19]
    44004700:	7100003f 	cmp	w1, #0x0
    44004704:	540000ab 	b.lt	44004718 <k_vprintf+0x1298>  // b.tstop
    44004708:	91003c01 	add	x1, x0, #0xf
    4400470c:	927df021 	and	x1, x1, #0xfffffffffffffff8
    44004710:	f9000261 	str	x1, [x19]
    44004714:	1400000d 	b	44004748 <k_vprintf+0x12c8>
    44004718:	11002022 	add	w2, w1, #0x8
    4400471c:	b9001a62 	str	w2, [x19, #24]
    44004720:	b9401a62 	ldr	w2, [x19, #24]
    44004724:	7100005f 	cmp	w2, #0x0
    44004728:	540000ad 	b.le	4400473c <k_vprintf+0x12bc>
    4400472c:	91003c01 	add	x1, x0, #0xf
    44004730:	927df021 	and	x1, x1, #0xfffffffffffffff8
    44004734:	f9000261 	str	x1, [x19]
    44004738:	14000004 	b	44004748 <k_vprintf+0x12c8>
    4400473c:	f9400662 	ldr	x2, [x19, #8]
    44004740:	93407c20 	sxtw	x0, w1
    44004744:	8b000040 	add	x0, x2, x0
    44004748:	f9400000 	ldr	x0, [x0]
    4400474c:	f900a7e0 	str	x0, [sp, #328]
    44004750:	1400006c 	b	44004900 <k_vprintf+0x1480>
    44004754:	b9410fe0 	ldr	w0, [sp, #268]
    44004758:	7100001f 	cmp	w0, #0x0
    4400475c:	54000300 	b.eq	440047bc <k_vprintf+0x133c>  // b.none
    44004760:	b9401a61 	ldr	w1, [x19, #24]
    44004764:	f9400260 	ldr	x0, [x19]
    44004768:	7100003f 	cmp	w1, #0x0
    4400476c:	540000ab 	b.lt	44004780 <k_vprintf+0x1300>  // b.tstop
    44004770:	91003c01 	add	x1, x0, #0xf
    44004774:	927df021 	and	x1, x1, #0xfffffffffffffff8
    44004778:	f9000261 	str	x1, [x19]
    4400477c:	1400000d 	b	440047b0 <k_vprintf+0x1330>
    44004780:	11002022 	add	w2, w1, #0x8
    44004784:	b9001a62 	str	w2, [x19, #24]
    44004788:	b9401a62 	ldr	w2, [x19, #24]
    4400478c:	7100005f 	cmp	w2, #0x0
    44004790:	540000ad 	b.le	440047a4 <k_vprintf+0x1324>
    44004794:	91003c01 	add	x1, x0, #0xf
    44004798:	927df021 	and	x1, x1, #0xfffffffffffffff8
    4400479c:	f9000261 	str	x1, [x19]
    440047a0:	14000004 	b	440047b0 <k_vprintf+0x1330>
    440047a4:	f9400662 	ldr	x2, [x19, #8]
    440047a8:	93407c20 	sxtw	x0, w1
    440047ac:	8b000040 	add	x0, x2, x0
    440047b0:	f9400000 	ldr	x0, [x0]
    440047b4:	f900a7e0 	str	x0, [sp, #328]
    440047b8:	14000052 	b	44004900 <k_vprintf+0x1480>
    440047bc:	b9411be0 	ldr	w0, [sp, #280]
    440047c0:	7100001f 	cmp	w0, #0x0
    440047c4:	54000340 	b.eq	4400482c <k_vprintf+0x13ac>  // b.none
    440047c8:	b9401a61 	ldr	w1, [x19, #24]
    440047cc:	f9400260 	ldr	x0, [x19]
    440047d0:	7100003f 	cmp	w1, #0x0
    440047d4:	540000ab 	b.lt	440047e8 <k_vprintf+0x1368>  // b.tstop
    440047d8:	91002c01 	add	x1, x0, #0xb
    440047dc:	927df021 	and	x1, x1, #0xfffffffffffffff8
    440047e0:	f9000261 	str	x1, [x19]
    440047e4:	1400000d 	b	44004818 <k_vprintf+0x1398>
    440047e8:	11002022 	add	w2, w1, #0x8
    440047ec:	b9001a62 	str	w2, [x19, #24]
    440047f0:	b9401a62 	ldr	w2, [x19, #24]
    440047f4:	7100005f 	cmp	w2, #0x0
    440047f8:	540000ad 	b.le	4400480c <k_vprintf+0x138c>
    440047fc:	91002c01 	add	x1, x0, #0xb
    44004800:	927df021 	and	x1, x1, #0xfffffffffffffff8
    44004804:	f9000261 	str	x1, [x19]
    44004808:	14000004 	b	44004818 <k_vprintf+0x1398>
    4400480c:	f9400662 	ldr	x2, [x19, #8]
    44004810:	93407c20 	sxtw	x0, w1
    44004814:	8b000040 	add	x0, x2, x0
    44004818:	b9400000 	ldr	w0, [x0]
    4400481c:	13003c00 	sxth	w0, w0
    44004820:	93403c00 	sxth	x0, w0
    44004824:	f900a7e0 	str	x0, [sp, #328]
    44004828:	14000036 	b	44004900 <k_vprintf+0x1480>
    4400482c:	b9411fe0 	ldr	w0, [sp, #284]
    44004830:	7100001f 	cmp	w0, #0x0
    44004834:	54000340 	b.eq	4400489c <k_vprintf+0x141c>  // b.none
    44004838:	b9401a61 	ldr	w1, [x19, #24]
    4400483c:	f9400260 	ldr	x0, [x19]
    44004840:	7100003f 	cmp	w1, #0x0
    44004844:	540000ab 	b.lt	44004858 <k_vprintf+0x13d8>  // b.tstop
    44004848:	91002c01 	add	x1, x0, #0xb
    4400484c:	927df021 	and	x1, x1, #0xfffffffffffffff8
    44004850:	f9000261 	str	x1, [x19]
    44004854:	1400000d 	b	44004888 <k_vprintf+0x1408>
    44004858:	11002022 	add	w2, w1, #0x8
    4400485c:	b9001a62 	str	w2, [x19, #24]
    44004860:	b9401a62 	ldr	w2, [x19, #24]
    44004864:	7100005f 	cmp	w2, #0x0
    44004868:	540000ad 	b.le	4400487c <k_vprintf+0x13fc>
    4400486c:	91002c01 	add	x1, x0, #0xb
    44004870:	927df021 	and	x1, x1, #0xfffffffffffffff8
    44004874:	f9000261 	str	x1, [x19]
    44004878:	14000004 	b	44004888 <k_vprintf+0x1408>
    4400487c:	f9400662 	ldr	x2, [x19, #8]
    44004880:	93407c20 	sxtw	x0, w1
    44004884:	8b000040 	add	x0, x2, x0
    44004888:	b9400000 	ldr	w0, [x0]
    4400488c:	12001c00 	and	w0, w0, #0xff
    44004890:	92401c00 	and	x0, x0, #0xff
    44004894:	f900a7e0 	str	x0, [sp, #328]
    44004898:	1400001a 	b	44004900 <k_vprintf+0x1480>
    4400489c:	b9401a61 	ldr	w1, [x19, #24]
    440048a0:	f9400260 	ldr	x0, [x19]
    440048a4:	7100003f 	cmp	w1, #0x0
    440048a8:	540000ab 	b.lt	440048bc <k_vprintf+0x143c>  // b.tstop
    440048ac:	91002c01 	add	x1, x0, #0xb
    440048b0:	927df021 	and	x1, x1, #0xfffffffffffffff8
    440048b4:	f9000261 	str	x1, [x19]
    440048b8:	1400000d 	b	440048ec <k_vprintf+0x146c>
    440048bc:	11002022 	add	w2, w1, #0x8
    440048c0:	b9001a62 	str	w2, [x19, #24]
    440048c4:	b9401a62 	ldr	w2, [x19, #24]
    440048c8:	7100005f 	cmp	w2, #0x0
    440048cc:	540000ad 	b.le	440048e0 <k_vprintf+0x1460>
    440048d0:	91002c01 	add	x1, x0, #0xb
    440048d4:	927df021 	and	x1, x1, #0xfffffffffffffff8
    440048d8:	f9000261 	str	x1, [x19]
    440048dc:	14000004 	b	440048ec <k_vprintf+0x146c>
    440048e0:	f9400662 	ldr	x2, [x19, #8]
    440048e4:	93407c20 	sxtw	x0, w1
    440048e8:	8b000040 	add	x0, x2, x0
    440048ec:	b9400000 	ldr	w0, [x0]
    440048f0:	93407c00 	sxtw	x0, w0
    440048f4:	f900a7e0 	str	x0, [sp, #328]
    440048f8:	14000002 	b	44004900 <k_vprintf+0x1480>
    440048fc:	d503201f 	nop
    44004900:	b94127e0 	ldr	w0, [sp, #292]
    44004904:	7100001f 	cmp	w0, #0x0
    44004908:	54000120 	b.eq	4400492c <k_vprintf+0x14ac>  // b.none
    4400490c:	f940a7e0 	ldr	x0, [sp, #328]
    44004910:	f100001f 	cmp	x0, #0x0
    44004914:	540000ca 	b.ge	4400492c <k_vprintf+0x14ac>  // b.tcont
    44004918:	52800020 	mov	w0, #0x1                   	// #1
    4400491c:	b9012be0 	str	w0, [sp, #296]
    44004920:	f940a7e0 	ldr	x0, [sp, #328]
    44004924:	cb0003e0 	neg	x0, x0
    44004928:	f900a7e0 	str	x0, [sp, #328]
    4400492c:	910133e1 	add	x1, sp, #0x4c
    44004930:	910143e0 	add	x0, sp, #0x50
    44004934:	b94103e4 	ldr	w4, [sp, #256]
    44004938:	aa0103e3 	mov	x3, x1
    4400493c:	b94147e2 	ldr	w2, [sp, #324]
    44004940:	f940a7e1 	ldr	x1, [sp, #328]
    44004944:	97fffa67 	bl	440032e0 <k_sprintn>
    44004948:	f900bbe0 	str	x0, [sp, #368]
    4400494c:	b9013bff 	str	wzr, [sp, #312]
    44004950:	b9412fe0 	ldr	w0, [sp, #300]
    44004954:	7100001f 	cmp	w0, #0x0
    44004958:	54000220 	b.eq	4400499c <k_vprintf+0x151c>  // b.none
    4400495c:	f940a7e0 	ldr	x0, [sp, #328]
    44004960:	f100001f 	cmp	x0, #0x0
    44004964:	540001c0 	b.eq	4400499c <k_vprintf+0x151c>  // b.none
    44004968:	b94147e0 	ldr	w0, [sp, #324]
    4400496c:	7100201f 	cmp	w0, #0x8
    44004970:	540000a1 	b.ne	44004984 <k_vprintf+0x1504>  // b.any
    44004974:	b9413be0 	ldr	w0, [sp, #312]
    44004978:	11000400 	add	w0, w0, #0x1
    4400497c:	b9013be0 	str	w0, [sp, #312]
    44004980:	14000007 	b	4400499c <k_vprintf+0x151c>
    44004984:	b94147e0 	ldr	w0, [sp, #324]
    44004988:	7100401f 	cmp	w0, #0x10
    4400498c:	54000081 	b.ne	4400499c <k_vprintf+0x151c>  // b.any
    44004990:	b9413be0 	ldr	w0, [sp, #312]
    44004994:	11000800 	add	w0, w0, #0x2
    44004998:	b9013be0 	str	w0, [sp, #312]
    4400499c:	b9412be0 	ldr	w0, [sp, #296]
    440049a0:	7100001f 	cmp	w0, #0x0
    440049a4:	54000080 	b.eq	440049b4 <k_vprintf+0x1534>  // b.none
    440049a8:	b9413be0 	ldr	w0, [sp, #312]
    440049ac:	11000400 	add	w0, w0, #0x1
    440049b0:	b9013be0 	str	w0, [sp, #312]
    440049b4:	b94133e0 	ldr	w0, [sp, #304]
    440049b8:	7100001f 	cmp	w0, #0x0
    440049bc:	54000101 	b.ne	440049dc <k_vprintf+0x155c>  // b.any
    440049c0:	3943ffe0 	ldrb	w0, [sp, #255]
    440049c4:	7100c01f 	cmp	w0, #0x30
    440049c8:	540000a1 	b.ne	440049dc <k_vprintf+0x155c>  // b.any
    440049cc:	b94137e1 	ldr	w1, [sp, #308]
    440049d0:	b9413be0 	ldr	w0, [sp, #312]
    440049d4:	4b000020 	sub	w0, w1, w0
    440049d8:	b90107e0 	str	w0, [sp, #260]
    440049dc:	b9404fe0 	ldr	w0, [sp, #76]
    440049e0:	2a0003e1 	mov	w1, w0
    440049e4:	b94107e0 	ldr	w0, [sp, #260]
    440049e8:	97fff9c2 	bl	440030f0 <imax>
    440049ec:	2a0003e1 	mov	w1, w0
    440049f0:	b9413be0 	ldr	w0, [sp, #312]
    440049f4:	0b000020 	add	w0, w1, w0
    440049f8:	b94137e1 	ldr	w1, [sp, #308]
    440049fc:	4b000020 	sub	w0, w1, w0
    44004a00:	b90137e0 	str	w0, [sp, #308]
    44004a04:	b9404fe0 	ldr	w0, [sp, #76]
    44004a08:	b94107e1 	ldr	w1, [sp, #260]
    44004a0c:	4b000020 	sub	w0, w1, w0
    44004a10:	b90107e0 	str	w0, [sp, #260]
    44004a14:	b94133e0 	ldr	w0, [sp, #304]
    44004a18:	7100001f 	cmp	w0, #0x0
    44004a1c:	54000341 	b.ne	44004a84 <k_vprintf+0x1604>  // b.any
    44004a20:	14000014 	b	44004a70 <k_vprintf+0x15f0>
    44004a24:	52800400 	mov	w0, #0x20                  	// #32
    44004a28:	b900dbe0 	str	w0, [sp, #216]
    44004a2c:	f9401be0 	ldr	x0, [sp, #48]
    44004a30:	f100001f 	cmp	x0, #0x0
    44004a34:	540000c0 	b.eq	44004a4c <k_vprintf+0x15cc>  // b.none
    44004a38:	f9401be2 	ldr	x2, [sp, #48]
    44004a3c:	f94017e1 	ldr	x1, [sp, #40]
    44004a40:	b940dbe0 	ldr	w0, [sp, #216]
    44004a44:	d63f0040 	blr	x2
    44004a48:	14000007 	b	44004a64 <k_vprintf+0x15e4>
    44004a4c:	f940bfe0 	ldr	x0, [sp, #376]
    44004a50:	91000401 	add	x1, x0, #0x1
    44004a54:	f900bfe1 	str	x1, [sp, #376]
    44004a58:	b940dbe1 	ldr	w1, [sp, #216]
    44004a5c:	12001c21 	and	w1, w1, #0xff
    44004a60:	39000001 	strb	w1, [x0]
    44004a64:	b940f7e0 	ldr	w0, [sp, #244]
    44004a68:	11000400 	add	w0, w0, #0x1
    44004a6c:	b900f7e0 	str	w0, [sp, #244]
    44004a70:	b94137e0 	ldr	w0, [sp, #308]
    44004a74:	51000401 	sub	w1, w0, #0x1
    44004a78:	b90137e1 	str	w1, [sp, #308]
    44004a7c:	7100001f 	cmp	w0, #0x0
    44004a80:	54fffd2c 	b.gt	44004a24 <k_vprintf+0x15a4>
    44004a84:	b9412be0 	ldr	w0, [sp, #296]
    44004a88:	7100001f 	cmp	w0, #0x0
    44004a8c:	54000280 	b.eq	44004adc <k_vprintf+0x165c>  // b.none
    44004a90:	528005a0 	mov	w0, #0x2d                  	// #45
    44004a94:	b900d7e0 	str	w0, [sp, #212]
    44004a98:	f9401be0 	ldr	x0, [sp, #48]
    44004a9c:	f100001f 	cmp	x0, #0x0
    44004aa0:	540000c0 	b.eq	44004ab8 <k_vprintf+0x1638>  // b.none
    44004aa4:	f9401be2 	ldr	x2, [sp, #48]
    44004aa8:	f94017e1 	ldr	x1, [sp, #40]
    44004aac:	b940d7e0 	ldr	w0, [sp, #212]
    44004ab0:	d63f0040 	blr	x2
    44004ab4:	14000007 	b	44004ad0 <k_vprintf+0x1650>
    44004ab8:	f940bfe0 	ldr	x0, [sp, #376]
    44004abc:	91000401 	add	x1, x0, #0x1
    44004ac0:	f900bfe1 	str	x1, [sp, #376]
    44004ac4:	b940d7e1 	ldr	w1, [sp, #212]
    44004ac8:	12001c21 	and	w1, w1, #0xff
    44004acc:	39000001 	strb	w1, [x0]
    44004ad0:	b940f7e0 	ldr	w0, [sp, #244]
    44004ad4:	11000400 	add	w0, w0, #0x1
    44004ad8:	b900f7e0 	str	w0, [sp, #244]
    44004adc:	b9412fe0 	ldr	w0, [sp, #300]
    44004ae0:	7100001f 	cmp	w0, #0x0
    44004ae4:	54000b00 	b.eq	44004c44 <k_vprintf+0x17c4>  // b.none
    44004ae8:	f940a7e0 	ldr	x0, [sp, #328]
    44004aec:	f100001f 	cmp	x0, #0x0
    44004af0:	54000aa0 	b.eq	44004c44 <k_vprintf+0x17c4>  // b.none
    44004af4:	b94147e0 	ldr	w0, [sp, #324]
    44004af8:	7100201f 	cmp	w0, #0x8
    44004afc:	540002a1 	b.ne	44004b50 <k_vprintf+0x16d0>  // b.any
    44004b00:	52800600 	mov	w0, #0x30                  	// #48
    44004b04:	b900cbe0 	str	w0, [sp, #200]
    44004b08:	f9401be0 	ldr	x0, [sp, #48]
    44004b0c:	f100001f 	cmp	x0, #0x0
    44004b10:	540000c0 	b.eq	44004b28 <k_vprintf+0x16a8>  // b.none
    44004b14:	f9401be2 	ldr	x2, [sp, #48]
    44004b18:	f94017e1 	ldr	x1, [sp, #40]
    44004b1c:	b940cbe0 	ldr	w0, [sp, #200]
    44004b20:	d63f0040 	blr	x2
    44004b24:	14000007 	b	44004b40 <k_vprintf+0x16c0>
    44004b28:	f940bfe0 	ldr	x0, [sp, #376]
    44004b2c:	91000401 	add	x1, x0, #0x1
    44004b30:	f900bfe1 	str	x1, [sp, #376]
    44004b34:	b940cbe1 	ldr	w1, [sp, #200]
    44004b38:	12001c21 	and	w1, w1, #0xff
    44004b3c:	39000001 	strb	w1, [x0]
    44004b40:	b940f7e0 	ldr	w0, [sp, #244]
    44004b44:	11000400 	add	w0, w0, #0x1
    44004b48:	b900f7e0 	str	w0, [sp, #244]
    44004b4c:	1400003e 	b	44004c44 <k_vprintf+0x17c4>
    44004b50:	b94147e0 	ldr	w0, [sp, #324]
    44004b54:	7100401f 	cmp	w0, #0x10
    44004b58:	54000761 	b.ne	44004c44 <k_vprintf+0x17c4>  // b.any
    44004b5c:	52800600 	mov	w0, #0x30                  	// #48
    44004b60:	b900d3e0 	str	w0, [sp, #208]
    44004b64:	f9401be0 	ldr	x0, [sp, #48]
    44004b68:	f100001f 	cmp	x0, #0x0
    44004b6c:	540000c0 	b.eq	44004b84 <k_vprintf+0x1704>  // b.none
    44004b70:	f9401be2 	ldr	x2, [sp, #48]
    44004b74:	f94017e1 	ldr	x1, [sp, #40]
    44004b78:	b940d3e0 	ldr	w0, [sp, #208]
    44004b7c:	d63f0040 	blr	x2
    44004b80:	14000007 	b	44004b9c <k_vprintf+0x171c>
    44004b84:	f940bfe0 	ldr	x0, [sp, #376]
    44004b88:	91000401 	add	x1, x0, #0x1
    44004b8c:	f900bfe1 	str	x1, [sp, #376]
    44004b90:	b940d3e1 	ldr	w1, [sp, #208]
    44004b94:	12001c21 	and	w1, w1, #0xff
    44004b98:	39000001 	strb	w1, [x0]
    44004b9c:	b940f7e0 	ldr	w0, [sp, #244]
    44004ba0:	11000400 	add	w0, w0, #0x1
    44004ba4:	b900f7e0 	str	w0, [sp, #244]
    44004ba8:	52800f00 	mov	w0, #0x78                  	// #120
    44004bac:	b900cfe0 	str	w0, [sp, #204]
    44004bb0:	f9401be0 	ldr	x0, [sp, #48]
    44004bb4:	f100001f 	cmp	x0, #0x0
    44004bb8:	540000c0 	b.eq	44004bd0 <k_vprintf+0x1750>  // b.none
    44004bbc:	f9401be2 	ldr	x2, [sp, #48]
    44004bc0:	f94017e1 	ldr	x1, [sp, #40]
    44004bc4:	b940cfe0 	ldr	w0, [sp, #204]
    44004bc8:	d63f0040 	blr	x2
    44004bcc:	14000007 	b	44004be8 <k_vprintf+0x1768>
    44004bd0:	f940bfe0 	ldr	x0, [sp, #376]
    44004bd4:	91000401 	add	x1, x0, #0x1
    44004bd8:	f900bfe1 	str	x1, [sp, #376]
    44004bdc:	b940cfe1 	ldr	w1, [sp, #204]
    44004be0:	12001c21 	and	w1, w1, #0xff
    44004be4:	39000001 	strb	w1, [x0]
    44004be8:	b940f7e0 	ldr	w0, [sp, #244]
    44004bec:	11000400 	add	w0, w0, #0x1
    44004bf0:	b900f7e0 	str	w0, [sp, #244]
    44004bf4:	14000014 	b	44004c44 <k_vprintf+0x17c4>
    44004bf8:	52800600 	mov	w0, #0x30                  	// #48
    44004bfc:	b900b3e0 	str	w0, [sp, #176]
    44004c00:	f9401be0 	ldr	x0, [sp, #48]
    44004c04:	f100001f 	cmp	x0, #0x0
    44004c08:	540000c0 	b.eq	44004c20 <k_vprintf+0x17a0>  // b.none
    44004c0c:	f9401be2 	ldr	x2, [sp, #48]
    44004c10:	f94017e1 	ldr	x1, [sp, #40]
    44004c14:	b940b3e0 	ldr	w0, [sp, #176]
    44004c18:	d63f0040 	blr	x2
    44004c1c:	14000007 	b	44004c38 <k_vprintf+0x17b8>
    44004c20:	f940bfe0 	ldr	x0, [sp, #376]
    44004c24:	91000401 	add	x1, x0, #0x1
    44004c28:	f900bfe1 	str	x1, [sp, #376]
    44004c2c:	b940b3e1 	ldr	w1, [sp, #176]
    44004c30:	12001c21 	and	w1, w1, #0xff
    44004c34:	39000001 	strb	w1, [x0]
    44004c38:	b940f7e0 	ldr	w0, [sp, #244]
    44004c3c:	11000400 	add	w0, w0, #0x1
    44004c40:	b900f7e0 	str	w0, [sp, #244]
    44004c44:	b94107e0 	ldr	w0, [sp, #260]
    44004c48:	51000401 	sub	w1, w0, #0x1
    44004c4c:	b90107e1 	str	w1, [sp, #260]
    44004c50:	7100001f 	cmp	w0, #0x0
    44004c54:	54fffd2c 	b.gt	44004bf8 <k_vprintf+0x1778>
    44004c58:	14000017 	b	44004cb4 <k_vprintf+0x1834>
    44004c5c:	f940bbe0 	ldr	x0, [sp, #368]
    44004c60:	d1000401 	sub	x1, x0, #0x1
    44004c64:	f900bbe1 	str	x1, [sp, #368]
    44004c68:	39400000 	ldrb	w0, [x0]
    44004c6c:	b900b7e0 	str	w0, [sp, #180]
    44004c70:	f9401be0 	ldr	x0, [sp, #48]
    44004c74:	f100001f 	cmp	x0, #0x0
    44004c78:	540000c0 	b.eq	44004c90 <k_vprintf+0x1810>  // b.none
    44004c7c:	f9401be2 	ldr	x2, [sp, #48]
    44004c80:	f94017e1 	ldr	x1, [sp, #40]
    44004c84:	b940b7e0 	ldr	w0, [sp, #180]
    44004c88:	d63f0040 	blr	x2
    44004c8c:	14000007 	b	44004ca8 <k_vprintf+0x1828>
    44004c90:	f940bfe0 	ldr	x0, [sp, #376]
    44004c94:	91000401 	add	x1, x0, #0x1
    44004c98:	f900bfe1 	str	x1, [sp, #376]
    44004c9c:	b940b7e1 	ldr	w1, [sp, #180]
    44004ca0:	12001c21 	and	w1, w1, #0xff
    44004ca4:	39000001 	strb	w1, [x0]
    44004ca8:	b940f7e0 	ldr	w0, [sp, #244]
    44004cac:	11000400 	add	w0, w0, #0x1
    44004cb0:	b900f7e0 	str	w0, [sp, #244]
    44004cb4:	f940bbe0 	ldr	x0, [sp, #368]
    44004cb8:	39400000 	ldrb	w0, [x0]
    44004cbc:	7100001f 	cmp	w0, #0x0
    44004cc0:	54fffce1 	b.ne	44004c5c <k_vprintf+0x17dc>  // b.any
    44004cc4:	b9410be0 	ldr	w0, [sp, #264]
    44004cc8:	7100001f 	cmp	w0, #0x0
    44004ccc:	54000ea0 	b.eq	44004ea0 <k_vprintf+0x1a20>  // b.none
    44004cd0:	f940a7e0 	ldr	x0, [sp, #328]
    44004cd4:	f100001f 	cmp	x0, #0x0
    44004cd8:	54000e40 	b.eq	44004ea0 <k_vprintf+0x1a20>  // b.none
    44004cdc:	b940f7e0 	ldr	w0, [sp, #244]
    44004ce0:	b9013be0 	str	w0, [sp, #312]
    44004ce4:	1400004e 	b	44004e1c <k_vprintf+0x199c>
    44004ce8:	f940b3e0 	ldr	x0, [sp, #352]
    44004cec:	91000401 	add	x1, x0, #0x1
    44004cf0:	f900b3e1 	str	x1, [sp, #352]
    44004cf4:	39400000 	ldrb	w0, [x0]
    44004cf8:	b9004fe0 	str	w0, [sp, #76]
    44004cfc:	b9404fe0 	ldr	w0, [sp, #76]
    44004d00:	51000400 	sub	w0, w0, #0x1
    44004d04:	52800021 	mov	w1, #0x1                   	// #1
    44004d08:	1ac02020 	lsl	w0, w1, w0
    44004d0c:	93407c01 	sxtw	x1, w0
    44004d10:	f940a7e0 	ldr	x0, [sp, #328]
    44004d14:	8a000020 	and	x0, x1, x0
    44004d18:	f100001f 	cmp	x0, #0x0
    44004d1c:	54000780 	b.eq	44004e0c <k_vprintf+0x198c>  // b.none
    44004d20:	b940f7e1 	ldr	w1, [sp, #244]
    44004d24:	b9413be0 	ldr	w0, [sp, #312]
    44004d28:	6b00003f 	cmp	w1, w0
    44004d2c:	54000060 	b.eq	44004d38 <k_vprintf+0x18b8>  // b.none
    44004d30:	52800580 	mov	w0, #0x2c                  	// #44
    44004d34:	14000002 	b	44004d3c <k_vprintf+0x18bc>
    44004d38:	52800780 	mov	w0, #0x3c                  	// #60
    44004d3c:	b900c3e0 	str	w0, [sp, #192]
    44004d40:	f9401be0 	ldr	x0, [sp, #48]
    44004d44:	f100001f 	cmp	x0, #0x0
    44004d48:	540000c0 	b.eq	44004d60 <k_vprintf+0x18e0>  // b.none
    44004d4c:	f9401be2 	ldr	x2, [sp, #48]
    44004d50:	f94017e1 	ldr	x1, [sp, #40]
    44004d54:	b940c3e0 	ldr	w0, [sp, #192]
    44004d58:	d63f0040 	blr	x2
    44004d5c:	14000007 	b	44004d78 <k_vprintf+0x18f8>
    44004d60:	f940bfe0 	ldr	x0, [sp, #376]
    44004d64:	91000401 	add	x1, x0, #0x1
    44004d68:	f900bfe1 	str	x1, [sp, #376]
    44004d6c:	b940c3e1 	ldr	w1, [sp, #192]
    44004d70:	12001c21 	and	w1, w1, #0xff
    44004d74:	39000001 	strb	w1, [x0]
    44004d78:	b940f7e0 	ldr	w0, [sp, #244]
    44004d7c:	11000400 	add	w0, w0, #0x1
    44004d80:	b900f7e0 	str	w0, [sp, #244]
    44004d84:	14000017 	b	44004de0 <k_vprintf+0x1960>
    44004d88:	b9404fe0 	ldr	w0, [sp, #76]
    44004d8c:	b900bfe0 	str	w0, [sp, #188]
    44004d90:	f9401be0 	ldr	x0, [sp, #48]
    44004d94:	f100001f 	cmp	x0, #0x0
    44004d98:	540000c0 	b.eq	44004db0 <k_vprintf+0x1930>  // b.none
    44004d9c:	f9401be2 	ldr	x2, [sp, #48]
    44004da0:	f94017e1 	ldr	x1, [sp, #40]
    44004da4:	b940bfe0 	ldr	w0, [sp, #188]
    44004da8:	d63f0040 	blr	x2
    44004dac:	14000007 	b	44004dc8 <k_vprintf+0x1948>
    44004db0:	f940bfe0 	ldr	x0, [sp, #376]
    44004db4:	91000401 	add	x1, x0, #0x1
    44004db8:	f900bfe1 	str	x1, [sp, #376]
    44004dbc:	b940bfe1 	ldr	w1, [sp, #188]
    44004dc0:	12001c21 	and	w1, w1, #0xff
    44004dc4:	39000001 	strb	w1, [x0]
    44004dc8:	b940f7e0 	ldr	w0, [sp, #244]
    44004dcc:	11000400 	add	w0, w0, #0x1
    44004dd0:	b900f7e0 	str	w0, [sp, #244]
    44004dd4:	f940b3e0 	ldr	x0, [sp, #352]
    44004dd8:	91000400 	add	x0, x0, #0x1
    44004ddc:	f900b3e0 	str	x0, [sp, #352]
    44004de0:	f940b3e0 	ldr	x0, [sp, #352]
    44004de4:	39400000 	ldrb	w0, [x0]
    44004de8:	b9004fe0 	str	w0, [sp, #76]
    44004dec:	b9404fe0 	ldr	w0, [sp, #76]
    44004df0:	7100801f 	cmp	w0, #0x20
    44004df4:	54fffcac 	b.gt	44004d88 <k_vprintf+0x1908>
    44004df8:	14000009 	b	44004e1c <k_vprintf+0x199c>
    44004dfc:	d503201f 	nop
    44004e00:	f940b3e0 	ldr	x0, [sp, #352]
    44004e04:	91000400 	add	x0, x0, #0x1
    44004e08:	f900b3e0 	str	x0, [sp, #352]
    44004e0c:	f940b3e0 	ldr	x0, [sp, #352]
    44004e10:	39400000 	ldrb	w0, [x0]
    44004e14:	7100801f 	cmp	w0, #0x20
    44004e18:	54ffff28 	b.hi	44004dfc <k_vprintf+0x197c>  // b.pmore
    44004e1c:	f940b3e0 	ldr	x0, [sp, #352]
    44004e20:	39400000 	ldrb	w0, [x0]
    44004e24:	7100001f 	cmp	w0, #0x0
    44004e28:	54fff601 	b.ne	44004ce8 <k_vprintf+0x1868>  // b.any
    44004e2c:	b940f7e1 	ldr	w1, [sp, #244]
    44004e30:	b9413be0 	ldr	w0, [sp, #312]
    44004e34:	6b00003f 	cmp	w1, w0
    44004e38:	54000340 	b.eq	44004ea0 <k_vprintf+0x1a20>  // b.none
    44004e3c:	528007c0 	mov	w0, #0x3e                  	// #62
    44004e40:	b900c7e0 	str	w0, [sp, #196]
    44004e44:	f9401be0 	ldr	x0, [sp, #48]
    44004e48:	f100001f 	cmp	x0, #0x0
    44004e4c:	540000c0 	b.eq	44004e64 <k_vprintf+0x19e4>  // b.none
    44004e50:	f9401be2 	ldr	x2, [sp, #48]
    44004e54:	f94017e1 	ldr	x1, [sp, #40]
    44004e58:	b940c7e0 	ldr	w0, [sp, #196]
    44004e5c:	d63f0040 	blr	x2
    44004e60:	14000007 	b	44004e7c <k_vprintf+0x19fc>
    44004e64:	f940bfe0 	ldr	x0, [sp, #376]
    44004e68:	91000401 	add	x1, x0, #0x1
    44004e6c:	f900bfe1 	str	x1, [sp, #376]
    44004e70:	b940c7e1 	ldr	w1, [sp, #196]
    44004e74:	12001c21 	and	w1, w1, #0xff
    44004e78:	39000001 	strb	w1, [x0]
    44004e7c:	b940f7e0 	ldr	w0, [sp, #244]
    44004e80:	11000400 	add	w0, w0, #0x1
    44004e84:	b900f7e0 	str	w0, [sp, #244]
    44004e88:	b940f7e1 	ldr	w1, [sp, #244]
    44004e8c:	b9413be0 	ldr	w0, [sp, #312]
    44004e90:	4b000020 	sub	w0, w1, w0
    44004e94:	b94137e1 	ldr	w1, [sp, #308]
    44004e98:	4b000020 	sub	w0, w1, w0
    44004e9c:	b90137e0 	str	w0, [sp, #308]
    44004ea0:	b94133e0 	ldr	w0, [sp, #304]
    44004ea4:	7100001f 	cmp	w0, #0x0
    44004ea8:	54000780 	b.eq	44004f98 <k_vprintf+0x1b18>  // b.none
    44004eac:	14000014 	b	44004efc <k_vprintf+0x1a7c>
    44004eb0:	52800400 	mov	w0, #0x20                  	// #32
    44004eb4:	b900bbe0 	str	w0, [sp, #184]
    44004eb8:	f9401be0 	ldr	x0, [sp, #48]
    44004ebc:	f100001f 	cmp	x0, #0x0
    44004ec0:	540000c0 	b.eq	44004ed8 <k_vprintf+0x1a58>  // b.none
    44004ec4:	f9401be2 	ldr	x2, [sp, #48]
    44004ec8:	f94017e1 	ldr	x1, [sp, #40]
    44004ecc:	b940bbe0 	ldr	w0, [sp, #184]
    44004ed0:	d63f0040 	blr	x2
    44004ed4:	14000007 	b	44004ef0 <k_vprintf+0x1a70>
    44004ed8:	f940bfe0 	ldr	x0, [sp, #376]
    44004edc:	91000401 	add	x1, x0, #0x1
    44004ee0:	f900bfe1 	str	x1, [sp, #376]
    44004ee4:	b940bbe1 	ldr	w1, [sp, #184]
    44004ee8:	12001c21 	and	w1, w1, #0xff
    44004eec:	39000001 	strb	w1, [x0]
    44004ef0:	b940f7e0 	ldr	w0, [sp, #244]
    44004ef4:	11000400 	add	w0, w0, #0x1
    44004ef8:	b900f7e0 	str	w0, [sp, #244]
    44004efc:	b94137e0 	ldr	w0, [sp, #308]
    44004f00:	51000401 	sub	w1, w0, #0x1
    44004f04:	b90137e1 	str	w1, [sp, #308]
    44004f08:	7100001f 	cmp	w0, #0x0
    44004f0c:	54fffd2c 	b.gt	44004eb0 <k_vprintf+0x1a30>
    44004f10:	14000022 	b	44004f98 <k_vprintf+0x1b18>
    44004f14:	f940b7e0 	ldr	x0, [sp, #360]
    44004f18:	91000401 	add	x1, x0, #0x1
    44004f1c:	f900b7e1 	str	x1, [sp, #360]
    44004f20:	39400000 	ldrb	w0, [x0]
    44004f24:	b9009fe0 	str	w0, [sp, #156]
    44004f28:	f9401be0 	ldr	x0, [sp, #48]
    44004f2c:	f100001f 	cmp	x0, #0x0
    44004f30:	540000c0 	b.eq	44004f48 <k_vprintf+0x1ac8>  // b.none
    44004f34:	f9401be2 	ldr	x2, [sp, #48]
    44004f38:	f94017e1 	ldr	x1, [sp, #40]
    44004f3c:	b9409fe0 	ldr	w0, [sp, #156]
    44004f40:	d63f0040 	blr	x2
    44004f44:	14000007 	b	44004f60 <k_vprintf+0x1ae0>
    44004f48:	f940bfe0 	ldr	x0, [sp, #376]
    44004f4c:	91000401 	add	x1, x0, #0x1
    44004f50:	f900bfe1 	str	x1, [sp, #376]
    44004f54:	b9409fe1 	ldr	w1, [sp, #156]
    44004f58:	12001c21 	and	w1, w1, #0xff
    44004f5c:	39000001 	strb	w1, [x0]
    44004f60:	b940f7e0 	ldr	w0, [sp, #244]
    44004f64:	11000400 	add	w0, w0, #0x1
    44004f68:	b900f7e0 	str	w0, [sp, #244]
    44004f6c:	f940b7e1 	ldr	x1, [sp, #360]
    44004f70:	f9401fe0 	ldr	x0, [sp, #56]
    44004f74:	eb00003f 	cmp	x1, x0
    44004f78:	54fffce3 	b.cc	44004f14 <k_vprintf+0x1a94>  // b.lo, b.ul, b.last
    44004f7c:	52800020 	mov	w0, #0x1                   	// #1
    44004f80:	b900fbe0 	str	w0, [sp, #248]
    44004f84:	14000006 	b	44004f9c <k_vprintf+0x1b1c>
    44004f88:	d503201f 	nop
    44004f8c:	17fff95e 	b	44003504 <k_vprintf+0x84>
    44004f90:	d503201f 	nop
    44004f94:	17fff95c 	b	44003504 <k_vprintf+0x84>
    44004f98:	d503201f 	nop
    44004f9c:	17fff95a 	b	44003504 <k_vprintf+0x84>
    44004fa0:	f9400bf3 	ldr	x19, [sp, #16]
    44004fa4:	a8d87bfd 	ldp	x29, x30, [sp], #384
    44004fa8:	d65f03c0 	ret

0000000044004fac <strcmp>:
    44004fac:	d10043ff 	sub	sp, sp, #0x10
    44004fb0:	f90007e0 	str	x0, [sp, #8]
    44004fb4:	f90003e1 	str	x1, [sp]
    44004fb8:	14000009 	b	44004fdc <strcmp+0x30>
    44004fbc:	f94007e0 	ldr	x0, [sp, #8]
    44004fc0:	91000401 	add	x1, x0, #0x1
    44004fc4:	f90007e1 	str	x1, [sp, #8]
    44004fc8:	39400000 	ldrb	w0, [x0]
    44004fcc:	7100001f 	cmp	w0, #0x0
    44004fd0:	54000061 	b.ne	44004fdc <strcmp+0x30>  // b.any
    44004fd4:	52800000 	mov	w0, #0x0                   	// #0
    44004fd8:	14000010 	b	44005018 <strcmp+0x6c>
    44004fdc:	f94007e0 	ldr	x0, [sp, #8]
    44004fe0:	39400001 	ldrb	w1, [x0]
    44004fe4:	f94003e0 	ldr	x0, [sp]
    44004fe8:	91000402 	add	x2, x0, #0x1
    44004fec:	f90003e2 	str	x2, [sp]
    44004ff0:	39400000 	ldrb	w0, [x0]
    44004ff4:	6b00003f 	cmp	w1, w0
    44004ff8:	54fffe20 	b.eq	44004fbc <strcmp+0x10>  // b.none
    44004ffc:	f94007e0 	ldr	x0, [sp, #8]
    44005000:	39400000 	ldrb	w0, [x0]
    44005004:	2a0003e1 	mov	w1, w0
    44005008:	f94003e0 	ldr	x0, [sp]
    4400500c:	d1000400 	sub	x0, x0, #0x1
    44005010:	39400000 	ldrb	w0, [x0]
    44005014:	4b000020 	sub	w0, w1, w0
    44005018:	910043ff 	add	sp, sp, #0x10
    4400501c:	d65f03c0 	ret

0000000044005020 <fdt32_to_cpu>:
    44005020:	d10043ff 	sub	sp, sp, #0x10
    44005024:	b9000fe0 	str	w0, [sp, #12]
    44005028:	910033e0 	add	x0, sp, #0xc
    4400502c:	39400000 	ldrb	w0, [x0]
    44005030:	53081c01 	lsl	w1, w0, #24
    44005034:	910033e0 	add	x0, sp, #0xc
    44005038:	91000400 	add	x0, x0, #0x1
    4400503c:	39400000 	ldrb	w0, [x0]
    44005040:	53103c00 	lsl	w0, w0, #16
    44005044:	2a000021 	orr	w1, w1, w0
    44005048:	910033e0 	add	x0, sp, #0xc
    4400504c:	91000800 	add	x0, x0, #0x2
    44005050:	39400000 	ldrb	w0, [x0]
    44005054:	53185c00 	lsl	w0, w0, #8
    44005058:	2a000021 	orr	w1, w1, w0
    4400505c:	910033e0 	add	x0, sp, #0xc
    44005060:	91000c00 	add	x0, x0, #0x3
    44005064:	39400000 	ldrb	w0, [x0]
    44005068:	2a000020 	orr	w0, w1, w0
    4400506c:	910043ff 	add	sp, sp, #0x10
    44005070:	d65f03c0 	ret

0000000044005074 <fdt_address_cells>:
    44005074:	a9bd7bfd 	stp	x29, x30, [sp, #-48]!
    44005078:	910003fd 	mov	x29, sp
    4400507c:	f9000fe0 	str	x0, [sp, #24]
    44005080:	b90017e1 	str	w1, [sp, #20]
    44005084:	910083e0 	add	x0, sp, #0x20
    44005088:	aa0003e3 	mov	x3, x0
    4400508c:	d0000080 	adrp	x0, 44017000 <krhino_workqueue_create+0x6c>
    44005090:	912c0002 	add	x2, x0, #0xb00
    44005094:	b94017e1 	ldr	w1, [sp, #20]
    44005098:	f9400fe0 	ldr	x0, [sp, #24]
    4400509c:	94000915 	bl	440074f0 <fdt_getprop>
    440050a0:	f90017e0 	str	x0, [sp, #40]
    440050a4:	f94017e0 	ldr	x0, [sp, #40]
    440050a8:	f100001f 	cmp	x0, #0x0
    440050ac:	54000061 	b.ne	440050b8 <fdt_address_cells+0x44>  // b.any
    440050b0:	52800040 	mov	w0, #0x2                   	// #2
    440050b4:	14000013 	b	44005100 <fdt_address_cells+0x8c>
    440050b8:	b94023e0 	ldr	w0, [sp, #32]
    440050bc:	7100101f 	cmp	w0, #0x4
    440050c0:	54000060 	b.eq	440050cc <fdt_address_cells+0x58>  // b.none
    440050c4:	128001a0 	mov	w0, #0xfffffff2            	// #-14
    440050c8:	1400000e 	b	44005100 <fdt_address_cells+0x8c>
    440050cc:	f94017e0 	ldr	x0, [sp, #40]
    440050d0:	b9400000 	ldr	w0, [x0]
    440050d4:	97ffffd3 	bl	44005020 <fdt32_to_cpu>
    440050d8:	b90027e0 	str	w0, [sp, #36]
    440050dc:	b94027e0 	ldr	w0, [sp, #36]
    440050e0:	7100001f 	cmp	w0, #0x0
    440050e4:	5400008d 	b.le	440050f4 <fdt_address_cells+0x80>
    440050e8:	b94027e0 	ldr	w0, [sp, #36]
    440050ec:	7100101f 	cmp	w0, #0x4
    440050f0:	5400006d 	b.le	440050fc <fdt_address_cells+0x88>
    440050f4:	128001a0 	mov	w0, #0xfffffff2            	// #-14
    440050f8:	14000002 	b	44005100 <fdt_address_cells+0x8c>
    440050fc:	b94027e0 	ldr	w0, [sp, #36]
    44005100:	a8c37bfd 	ldp	x29, x30, [sp], #48
    44005104:	d65f03c0 	ret

0000000044005108 <fdt_size_cells>:
    44005108:	a9bd7bfd 	stp	x29, x30, [sp, #-48]!
    4400510c:	910003fd 	mov	x29, sp
    44005110:	f9000fe0 	str	x0, [sp, #24]
    44005114:	b90017e1 	str	w1, [sp, #20]
    44005118:	910083e0 	add	x0, sp, #0x20
    4400511c:	aa0003e3 	mov	x3, x0
    44005120:	d0000080 	adrp	x0, 44017000 <krhino_workqueue_create+0x6c>
    44005124:	912c4002 	add	x2, x0, #0xb10
    44005128:	b94017e1 	ldr	w1, [sp, #20]
    4400512c:	f9400fe0 	ldr	x0, [sp, #24]
    44005130:	940008f0 	bl	440074f0 <fdt_getprop>
    44005134:	f90017e0 	str	x0, [sp, #40]
    44005138:	f94017e0 	ldr	x0, [sp, #40]
    4400513c:	f100001f 	cmp	x0, #0x0
    44005140:	54000061 	b.ne	4400514c <fdt_size_cells+0x44>  // b.any
    44005144:	52800040 	mov	w0, #0x2                   	// #2
    44005148:	14000013 	b	44005194 <fdt_size_cells+0x8c>
    4400514c:	b94023e0 	ldr	w0, [sp, #32]
    44005150:	7100101f 	cmp	w0, #0x4
    44005154:	54000060 	b.eq	44005160 <fdt_size_cells+0x58>  // b.none
    44005158:	128001a0 	mov	w0, #0xfffffff2            	// #-14
    4400515c:	1400000e 	b	44005194 <fdt_size_cells+0x8c>
    44005160:	f94017e0 	ldr	x0, [sp, #40]
    44005164:	b9400000 	ldr	w0, [x0]
    44005168:	97ffffae 	bl	44005020 <fdt32_to_cpu>
    4400516c:	b90027e0 	str	w0, [sp, #36]
    44005170:	b94027e0 	ldr	w0, [sp, #36]
    44005174:	7100001f 	cmp	w0, #0x0
    44005178:	5400008b 	b.lt	44005188 <fdt_size_cells+0x80>  // b.tstop
    4400517c:	b94027e0 	ldr	w0, [sp, #36]
    44005180:	7100101f 	cmp	w0, #0x4
    44005184:	5400006d 	b.le	44005190 <fdt_size_cells+0x88>
    44005188:	128001a0 	mov	w0, #0xfffffff2            	// #-14
    4400518c:	14000002 	b	44005194 <fdt_size_cells+0x8c>
    44005190:	b94027e0 	ldr	w0, [sp, #36]
    44005194:	a8c37bfd 	ldp	x29, x30, [sp], #48
    44005198:	d65f03c0 	ret

000000004400519c <fdt_create_empty_tree>:
    4400519c:	a9bd7bfd 	stp	x29, x30, [sp, #-48]!
    440051a0:	910003fd 	mov	x29, sp
    440051a4:	f9000fe0 	str	x0, [sp, #24]
    440051a8:	b90017e1 	str	w1, [sp, #20]
    440051ac:	b94017e1 	ldr	w1, [sp, #20]
    440051b0:	f9400fe0 	ldr	x0, [sp, #24]
    440051b4:	94001330 	bl	44009e74 <fdt_create>
    440051b8:	b9002fe0 	str	w0, [sp, #44]
    440051bc:	b9402fe0 	ldr	w0, [sp, #44]
    440051c0:	7100001f 	cmp	w0, #0x0
    440051c4:	54000060 	b.eq	440051d0 <fdt_create_empty_tree+0x34>  // b.none
    440051c8:	b9402fe0 	ldr	w0, [sp, #44]
    440051cc:	14000027 	b	44005268 <fdt_create_empty_tree+0xcc>
    440051d0:	f9400fe0 	ldr	x0, [sp, #24]
    440051d4:	940013de 	bl	4400a14c <fdt_finish_reservemap>
    440051d8:	b9002fe0 	str	w0, [sp, #44]
    440051dc:	b9402fe0 	ldr	w0, [sp, #44]
    440051e0:	7100001f 	cmp	w0, #0x0
    440051e4:	54000060 	b.eq	440051f0 <fdt_create_empty_tree+0x54>  // b.none
    440051e8:	b9402fe0 	ldr	w0, [sp, #44]
    440051ec:	1400001f 	b	44005268 <fdt_create_empty_tree+0xcc>
    440051f0:	d0000080 	adrp	x0, 44017000 <krhino_workqueue_create+0x6c>
    440051f4:	912c8001 	add	x1, x0, #0xb20
    440051f8:	f9400fe0 	ldr	x0, [sp, #24]
    440051fc:	940013dd 	bl	4400a170 <fdt_begin_node>
    44005200:	b9002fe0 	str	w0, [sp, #44]
    44005204:	b9402fe0 	ldr	w0, [sp, #44]
    44005208:	7100001f 	cmp	w0, #0x0
    4400520c:	54000060 	b.eq	44005218 <fdt_create_empty_tree+0x7c>  // b.none
    44005210:	b9402fe0 	ldr	w0, [sp, #44]
    44005214:	14000015 	b	44005268 <fdt_create_empty_tree+0xcc>
    44005218:	f9400fe0 	ldr	x0, [sp, #24]
    4400521c:	94001400 	bl	4400a21c <fdt_end_node>
    44005220:	b9002fe0 	str	w0, [sp, #44]
    44005224:	b9402fe0 	ldr	w0, [sp, #44]
    44005228:	7100001f 	cmp	w0, #0x0
    4400522c:	54000060 	b.eq	44005238 <fdt_create_empty_tree+0x9c>  // b.none
    44005230:	b9402fe0 	ldr	w0, [sp, #44]
    44005234:	1400000d 	b	44005268 <fdt_create_empty_tree+0xcc>
    44005238:	f9400fe0 	ldr	x0, [sp, #24]
    4400523c:	940014b5 	bl	4400a510 <fdt_finish>
    44005240:	b9002fe0 	str	w0, [sp, #44]
    44005244:	b9402fe0 	ldr	w0, [sp, #44]
    44005248:	7100001f 	cmp	w0, #0x0
    4400524c:	54000060 	b.eq	44005258 <fdt_create_empty_tree+0xbc>  // b.none
    44005250:	b9402fe0 	ldr	w0, [sp, #44]
    44005254:	14000005 	b	44005268 <fdt_create_empty_tree+0xcc>
    44005258:	b94017e2 	ldr	w2, [sp, #20]
    4400525c:	f9400fe1 	ldr	x1, [sp, #24]
    44005260:	f9400fe0 	ldr	x0, [sp, #24]
    44005264:	940010fc 	bl	44009654 <fdt_open_into>
    44005268:	a8c37bfd 	ldp	x29, x30, [sp], #48
    4400526c:	d65f03c0 	ret

0000000044005270 <fdt32_to_cpu>:
    44005270:	d10043ff 	sub	sp, sp, #0x10
    44005274:	b9000fe0 	str	w0, [sp, #12]
    44005278:	910033e0 	add	x0, sp, #0xc
    4400527c:	39400000 	ldrb	w0, [x0]
    44005280:	53081c01 	lsl	w1, w0, #24
    44005284:	910033e0 	add	x0, sp, #0xc
    44005288:	91000400 	add	x0, x0, #0x1
    4400528c:	39400000 	ldrb	w0, [x0]
    44005290:	53103c00 	lsl	w0, w0, #16
    44005294:	2a000021 	orr	w1, w1, w0
    44005298:	910033e0 	add	x0, sp, #0xc
    4400529c:	91000800 	add	x0, x0, #0x2
    440052a0:	39400000 	ldrb	w0, [x0]
    440052a4:	53185c00 	lsl	w0, w0, #8
    440052a8:	2a000021 	orr	w1, w1, w0
    440052ac:	910033e0 	add	x0, sp, #0xc
    440052b0:	91000c00 	add	x0, x0, #0x3
    440052b4:	39400000 	ldrb	w0, [x0]
    440052b8:	2a000020 	orr	w0, w1, w0
    440052bc:	910043ff 	add	sp, sp, #0x10
    440052c0:	d65f03c0 	ret

00000000440052c4 <cpu_to_fdt32>:
    440052c4:	d10043ff 	sub	sp, sp, #0x10
    440052c8:	b9000fe0 	str	w0, [sp, #12]
    440052cc:	910033e0 	add	x0, sp, #0xc
    440052d0:	39400000 	ldrb	w0, [x0]
    440052d4:	53081c01 	lsl	w1, w0, #24
    440052d8:	910033e0 	add	x0, sp, #0xc
    440052dc:	91000400 	add	x0, x0, #0x1
    440052e0:	39400000 	ldrb	w0, [x0]
    440052e4:	53103c00 	lsl	w0, w0, #16
    440052e8:	2a000021 	orr	w1, w1, w0
    440052ec:	910033e0 	add	x0, sp, #0xc
    440052f0:	91000800 	add	x0, x0, #0x2
    440052f4:	39400000 	ldrb	w0, [x0]
    440052f8:	53185c00 	lsl	w0, w0, #8
    440052fc:	2a000021 	orr	w1, w1, w0
    44005300:	910033e0 	add	x0, sp, #0xc
    44005304:	91000c00 	add	x0, x0, #0x3
    44005308:	39400000 	ldrb	w0, [x0]
    4400530c:	2a000020 	orr	w0, w1, w0
    44005310:	910043ff 	add	sp, sp, #0x10
    44005314:	d65f03c0 	ret

0000000044005318 <fdt_set_magic>:
    44005318:	a9bd7bfd 	stp	x29, x30, [sp, #-48]!
    4400531c:	910003fd 	mov	x29, sp
    44005320:	f9000fe0 	str	x0, [sp, #24]
    44005324:	b90017e1 	str	w1, [sp, #20]
    44005328:	f9400fe0 	ldr	x0, [sp, #24]
    4400532c:	f90017e0 	str	x0, [sp, #40]
    44005330:	b94017e0 	ldr	w0, [sp, #20]
    44005334:	97ffffe4 	bl	440052c4 <cpu_to_fdt32>
    44005338:	2a0003e1 	mov	w1, w0
    4400533c:	f94017e0 	ldr	x0, [sp, #40]
    44005340:	b9000001 	str	w1, [x0]
    44005344:	a8c37bfd 	ldp	x29, x30, [sp], #48
    44005348:	d65f03c0 	ret

000000004400534c <fdt_setprop_inplace_u32>:
    4400534c:	a9bc7bfd 	stp	x29, x30, [sp, #-64]!
    44005350:	910003fd 	mov	x29, sp
    44005354:	f90017e0 	str	x0, [sp, #40]
    44005358:	b90027e1 	str	w1, [sp, #36]
    4400535c:	f9000fe2 	str	x2, [sp, #24]
    44005360:	b90023e3 	str	w3, [sp, #32]
    44005364:	b94023e0 	ldr	w0, [sp, #32]
    44005368:	97ffffd7 	bl	440052c4 <cpu_to_fdt32>
    4400536c:	b9003fe0 	str	w0, [sp, #60]
    44005370:	9100f3e0 	add	x0, sp, #0x3c
    44005374:	52800084 	mov	w4, #0x4                   	// #4
    44005378:	aa0003e3 	mov	x3, x0
    4400537c:	f9400fe2 	ldr	x2, [sp, #24]
    44005380:	b94027e1 	ldr	w1, [sp, #36]
    44005384:	f94017e0 	ldr	x0, [sp, #40]
    44005388:	94001541 	bl	4400a88c <fdt_setprop_inplace>
    4400538c:	a8c47bfd 	ldp	x29, x30, [sp], #64
    44005390:	d65f03c0 	ret

0000000044005394 <overlay_get_target_phandle>:
    44005394:	a9bd7bfd 	stp	x29, x30, [sp, #-48]!
    44005398:	910003fd 	mov	x29, sp
    4400539c:	f9000fe0 	str	x0, [sp, #24]
    440053a0:	b90017e1 	str	w1, [sp, #20]
    440053a4:	910093e0 	add	x0, sp, #0x24
    440053a8:	aa0003e3 	mov	x3, x0
    440053ac:	d0000080 	adrp	x0, 44017000 <krhino_workqueue_create+0x6c>
    440053b0:	912ca002 	add	x2, x0, #0xb28
    440053b4:	b94017e1 	ldr	w1, [sp, #20]
    440053b8:	f9400fe0 	ldr	x0, [sp, #24]
    440053bc:	9400084d 	bl	440074f0 <fdt_getprop>
    440053c0:	f90017e0 	str	x0, [sp, #40]
    440053c4:	f94017e0 	ldr	x0, [sp, #40]
    440053c8:	f100001f 	cmp	x0, #0x0
    440053cc:	54000061 	b.ne	440053d8 <overlay_get_target_phandle+0x44>  // b.any
    440053d0:	52800000 	mov	w0, #0x0                   	// #0
    440053d4:	1400000e 	b	4400540c <overlay_get_target_phandle+0x78>
    440053d8:	b94027e0 	ldr	w0, [sp, #36]
    440053dc:	7100101f 	cmp	w0, #0x4
    440053e0:	540000c1 	b.ne	440053f8 <overlay_get_target_phandle+0x64>  // b.any
    440053e4:	f94017e0 	ldr	x0, [sp, #40]
    440053e8:	b9400000 	ldr	w0, [x0]
    440053ec:	97ffffa1 	bl	44005270 <fdt32_to_cpu>
    440053f0:	3100041f 	cmn	w0, #0x1
    440053f4:	54000061 	b.ne	44005400 <overlay_get_target_phandle+0x6c>  // b.any
    440053f8:	12800000 	mov	w0, #0xffffffff            	// #-1
    440053fc:	14000004 	b	4400540c <overlay_get_target_phandle+0x78>
    44005400:	f94017e0 	ldr	x0, [sp, #40]
    44005404:	b9400000 	ldr	w0, [x0]
    44005408:	97ffff9a 	bl	44005270 <fdt32_to_cpu>
    4400540c:	a8c37bfd 	ldp	x29, x30, [sp], #48
    44005410:	d65f03c0 	ret

0000000044005414 <overlay_get_target>:
    44005414:	a9bb7bfd 	stp	x29, x30, [sp, #-80]!
    44005418:	910003fd 	mov	x29, sp
    4400541c:	f90017e0 	str	x0, [sp, #40]
    44005420:	f90013e1 	str	x1, [sp, #32]
    44005424:	b9001fe2 	str	w2, [sp, #28]
    44005428:	f9000be3 	str	x3, [sp, #16]
    4400542c:	f90027ff 	str	xzr, [sp, #72]
    44005430:	b9003fff 	str	wzr, [sp, #60]
    44005434:	b9401fe1 	ldr	w1, [sp, #28]
    44005438:	f94013e0 	ldr	x0, [sp, #32]
    4400543c:	97ffffd6 	bl	44005394 <overlay_get_target_phandle>
    44005440:	b90043e0 	str	w0, [sp, #64]
    44005444:	b94043e0 	ldr	w0, [sp, #64]
    44005448:	3100041f 	cmn	w0, #0x1
    4400544c:	54000061 	b.ne	44005458 <overlay_get_target+0x44>  // b.any
    44005450:	128000a0 	mov	w0, #0xfffffffa            	// #-6
    44005454:	1400002f 	b	44005510 <overlay_get_target+0xfc>
    44005458:	b94043e0 	ldr	w0, [sp, #64]
    4400545c:	7100001f 	cmp	w0, #0x0
    44005460:	54000281 	b.ne	440054b0 <overlay_get_target+0x9c>  // b.any
    44005464:	9100f3e0 	add	x0, sp, #0x3c
    44005468:	aa0003e3 	mov	x3, x0
    4400546c:	d0000080 	adrp	x0, 44017000 <krhino_workqueue_create+0x6c>
    44005470:	912cc002 	add	x2, x0, #0xb30
    44005474:	b9401fe1 	ldr	w1, [sp, #28]
    44005478:	f94013e0 	ldr	x0, [sp, #32]
    4400547c:	9400081d 	bl	440074f0 <fdt_getprop>
    44005480:	f90027e0 	str	x0, [sp, #72]
    44005484:	f94027e0 	ldr	x0, [sp, #72]
    44005488:	f100001f 	cmp	x0, #0x0
    4400548c:	540000c0 	b.eq	440054a4 <overlay_get_target+0x90>  // b.none
    44005490:	f94027e1 	ldr	x1, [sp, #72]
    44005494:	f94017e0 	ldr	x0, [sp, #40]
    44005498:	940006a4 	bl	44006f28 <fdt_path_offset>
    4400549c:	b90047e0 	str	w0, [sp, #68]
    440054a0:	14000008 	b	440054c0 <overlay_get_target+0xac>
    440054a4:	b9403fe0 	ldr	w0, [sp, #60]
    440054a8:	b90047e0 	str	w0, [sp, #68]
    440054ac:	14000005 	b	440054c0 <overlay_get_target+0xac>
    440054b0:	b94043e1 	ldr	w1, [sp, #64]
    440054b4:	f94017e0 	ldr	x0, [sp, #40]
    440054b8:	940009a3 	bl	44007b44 <fdt_node_offset_by_phandle>
    440054bc:	b90047e0 	str	w0, [sp, #68]
    440054c0:	b94047e0 	ldr	w0, [sp, #68]
    440054c4:	7100001f 	cmp	w0, #0x0
    440054c8:	540000ca 	b.ge	440054e0 <overlay_get_target+0xcc>  // b.tcont
    440054cc:	b9403fe0 	ldr	w0, [sp, #60]
    440054d0:	3100041f 	cmn	w0, #0x1
    440054d4:	54000061 	b.ne	440054e0 <overlay_get_target+0xcc>  // b.any
    440054d8:	128001e0 	mov	w0, #0xfffffff0            	// #-16
    440054dc:	b90047e0 	str	w0, [sp, #68]
    440054e0:	b94047e0 	ldr	w0, [sp, #68]
    440054e4:	7100001f 	cmp	w0, #0x0
    440054e8:	5400006a 	b.ge	440054f4 <overlay_get_target+0xe0>  // b.tcont
    440054ec:	b94047e0 	ldr	w0, [sp, #68]
    440054f0:	14000008 	b	44005510 <overlay_get_target+0xfc>
    440054f4:	f9400be0 	ldr	x0, [sp, #16]
    440054f8:	f100001f 	cmp	x0, #0x0
    440054fc:	54000080 	b.eq	4400550c <overlay_get_target+0xf8>  // b.none
    44005500:	f9400be0 	ldr	x0, [sp, #16]
    44005504:	f94027e1 	ldr	x1, [sp, #72]
    44005508:	f9000001 	str	x1, [x0]
    4400550c:	b94047e0 	ldr	w0, [sp, #68]
    44005510:	a8c57bfd 	ldp	x29, x30, [sp], #80
    44005514:	d65f03c0 	ret

0000000044005518 <overlay_phandle_add_offset>:
    44005518:	a9bc7bfd 	stp	x29, x30, [sp, #-64]!
    4400551c:	910003fd 	mov	x29, sp
    44005520:	f90017e0 	str	x0, [sp, #40]
    44005524:	b90027e1 	str	w1, [sp, #36]
    44005528:	f9000fe2 	str	x2, [sp, #24]
    4400552c:	b90023e3 	str	w3, [sp, #32]
    44005530:	9100c3e0 	add	x0, sp, #0x30
    44005534:	aa0003e3 	mov	x3, x0
    44005538:	f9400fe2 	ldr	x2, [sp, #24]
    4400553c:	b94027e1 	ldr	w1, [sp, #36]
    44005540:	f94017e0 	ldr	x0, [sp, #40]
    44005544:	940007eb 	bl	440074f0 <fdt_getprop>
    44005548:	f9001fe0 	str	x0, [sp, #56]
    4400554c:	f9401fe0 	ldr	x0, [sp, #56]
    44005550:	f100001f 	cmp	x0, #0x0
    44005554:	54000061 	b.ne	44005560 <overlay_phandle_add_offset+0x48>  // b.any
    44005558:	b94033e0 	ldr	w0, [sp, #48]
    4400555c:	14000020 	b	440055dc <overlay_phandle_add_offset+0xc4>
    44005560:	b94033e0 	ldr	w0, [sp, #48]
    44005564:	7100101f 	cmp	w0, #0x4
    44005568:	54000060 	b.eq	44005574 <overlay_phandle_add_offset+0x5c>  // b.none
    4400556c:	128000a0 	mov	w0, #0xfffffffa            	// #-6
    44005570:	1400001b 	b	440055dc <overlay_phandle_add_offset+0xc4>
    44005574:	f9401fe0 	ldr	x0, [sp, #56]
    44005578:	b9400000 	ldr	w0, [x0]
    4400557c:	97ffff3d 	bl	44005270 <fdt32_to_cpu>
    44005580:	b90037e0 	str	w0, [sp, #52]
    44005584:	b94037e1 	ldr	w1, [sp, #52]
    44005588:	b94023e0 	ldr	w0, [sp, #32]
    4400558c:	0b000020 	add	w0, w1, w0
    44005590:	b94037e1 	ldr	w1, [sp, #52]
    44005594:	6b00003f 	cmp	w1, w0
    44005598:	54000069 	b.ls	440055a4 <overlay_phandle_add_offset+0x8c>  // b.plast
    4400559c:	12800200 	mov	w0, #0xffffffef            	// #-17
    440055a0:	1400000f 	b	440055dc <overlay_phandle_add_offset+0xc4>
    440055a4:	b94037e1 	ldr	w1, [sp, #52]
    440055a8:	b94023e0 	ldr	w0, [sp, #32]
    440055ac:	0b000020 	add	w0, w1, w0
    440055b0:	b90037e0 	str	w0, [sp, #52]
    440055b4:	b94037e0 	ldr	w0, [sp, #52]
    440055b8:	3100041f 	cmn	w0, #0x1
    440055bc:	54000061 	b.ne	440055c8 <overlay_phandle_add_offset+0xb0>  // b.any
    440055c0:	12800200 	mov	w0, #0xffffffef            	// #-17
    440055c4:	14000006 	b	440055dc <overlay_phandle_add_offset+0xc4>
    440055c8:	b94037e3 	ldr	w3, [sp, #52]
    440055cc:	f9400fe2 	ldr	x2, [sp, #24]
    440055d0:	b94027e1 	ldr	w1, [sp, #36]
    440055d4:	f94017e0 	ldr	x0, [sp, #40]
    440055d8:	97ffff5d 	bl	4400534c <fdt_setprop_inplace_u32>
    440055dc:	a8c47bfd 	ldp	x29, x30, [sp], #64
    440055e0:	d65f03c0 	ret

00000000440055e4 <overlay_adjust_node_phandles>:
    440055e4:	a9bd7bfd 	stp	x29, x30, [sp, #-48]!
    440055e8:	910003fd 	mov	x29, sp
    440055ec:	f9000fe0 	str	x0, [sp, #24]
    440055f0:	b90017e1 	str	w1, [sp, #20]
    440055f4:	b90013e2 	str	w2, [sp, #16]
    440055f8:	b94013e3 	ldr	w3, [sp, #16]
    440055fc:	d0000080 	adrp	x0, 44017000 <krhino_workqueue_create+0x6c>
    44005600:	912d0002 	add	x2, x0, #0xb40
    44005604:	b94017e1 	ldr	w1, [sp, #20]
    44005608:	f9400fe0 	ldr	x0, [sp, #24]
    4400560c:	97ffffc3 	bl	44005518 <overlay_phandle_add_offset>
    44005610:	b9002be0 	str	w0, [sp, #40]
    44005614:	b9402be0 	ldr	w0, [sp, #40]
    44005618:	7100001f 	cmp	w0, #0x0
    4400561c:	540000c0 	b.eq	44005634 <overlay_adjust_node_phandles+0x50>  // b.none
    44005620:	b9402be0 	ldr	w0, [sp, #40]
    44005624:	3100041f 	cmn	w0, #0x1
    44005628:	54000060 	b.eq	44005634 <overlay_adjust_node_phandles+0x50>  // b.none
    4400562c:	b9402be0 	ldr	w0, [sp, #40]
    44005630:	14000027 	b	440056cc <overlay_adjust_node_phandles+0xe8>
    44005634:	b94013e3 	ldr	w3, [sp, #16]
    44005638:	d0000080 	adrp	x0, 44017000 <krhino_workqueue_create+0x6c>
    4400563c:	912d2002 	add	x2, x0, #0xb48
    44005640:	b94017e1 	ldr	w1, [sp, #20]
    44005644:	f9400fe0 	ldr	x0, [sp, #24]
    44005648:	97ffffb4 	bl	44005518 <overlay_phandle_add_offset>
    4400564c:	b9002be0 	str	w0, [sp, #40]
    44005650:	b9402be0 	ldr	w0, [sp, #40]
    44005654:	7100001f 	cmp	w0, #0x0
    44005658:	540000c0 	b.eq	44005670 <overlay_adjust_node_phandles+0x8c>  // b.none
    4400565c:	b9402be0 	ldr	w0, [sp, #40]
    44005660:	3100041f 	cmn	w0, #0x1
    44005664:	54000060 	b.eq	44005670 <overlay_adjust_node_phandles+0x8c>  // b.none
    44005668:	b9402be0 	ldr	w0, [sp, #40]
    4400566c:	14000018 	b	440056cc <overlay_adjust_node_phandles+0xe8>
    44005670:	b94017e1 	ldr	w1, [sp, #20]
    44005674:	f9400fe0 	ldr	x0, [sp, #24]
    44005678:	940016b7 	bl	4400b154 <fdt_first_subnode>
    4400567c:	b9002fe0 	str	w0, [sp, #44]
    44005680:	1400000f 	b	440056bc <overlay_adjust_node_phandles+0xd8>
    44005684:	b94013e2 	ldr	w2, [sp, #16]
    44005688:	b9402fe1 	ldr	w1, [sp, #44]
    4400568c:	f9400fe0 	ldr	x0, [sp, #24]
    44005690:	97ffffd5 	bl	440055e4 <overlay_adjust_node_phandles>
    44005694:	b9002be0 	str	w0, [sp, #40]
    44005698:	b9402be0 	ldr	w0, [sp, #40]
    4400569c:	7100001f 	cmp	w0, #0x0
    440056a0:	54000060 	b.eq	440056ac <overlay_adjust_node_phandles+0xc8>  // b.none
    440056a4:	b9402be0 	ldr	w0, [sp, #40]
    440056a8:	14000009 	b	440056cc <overlay_adjust_node_phandles+0xe8>
    440056ac:	b9402fe1 	ldr	w1, [sp, #44]
    440056b0:	f9400fe0 	ldr	x0, [sp, #24]
    440056b4:	940016be 	bl	4400b1ac <fdt_next_subnode>
    440056b8:	b9002fe0 	str	w0, [sp, #44]
    440056bc:	b9402fe0 	ldr	w0, [sp, #44]
    440056c0:	7100001f 	cmp	w0, #0x0
    440056c4:	54fffe0a 	b.ge	44005684 <overlay_adjust_node_phandles+0xa0>  // b.tcont
    440056c8:	52800000 	mov	w0, #0x0                   	// #0
    440056cc:	a8c37bfd 	ldp	x29, x30, [sp], #48
    440056d0:	d65f03c0 	ret

00000000440056d4 <overlay_adjust_local_phandles>:
    440056d4:	a9be7bfd 	stp	x29, x30, [sp, #-32]!
    440056d8:	910003fd 	mov	x29, sp
    440056dc:	f9000fe0 	str	x0, [sp, #24]
    440056e0:	b90017e1 	str	w1, [sp, #20]
    440056e4:	b94017e2 	ldr	w2, [sp, #20]
    440056e8:	52800001 	mov	w1, #0x0                   	// #0
    440056ec:	f9400fe0 	ldr	x0, [sp, #24]
    440056f0:	97ffffbd 	bl	440055e4 <overlay_adjust_node_phandles>
    440056f4:	a8c27bfd 	ldp	x29, x30, [sp], #32
    440056f8:	d65f03c0 	ret

00000000440056fc <overlay_update_local_node_references>:
    440056fc:	a9b77bfd 	stp	x29, x30, [sp, #-144]!
    44005700:	910003fd 	mov	x29, sp
    44005704:	f9000bf3 	str	x19, [sp, #16]
    44005708:	f9001fe0 	str	x0, [sp, #56]
    4400570c:	b90037e1 	str	w1, [sp, #52]
    44005710:	b90033e2 	str	w2, [sp, #48]
    44005714:	b9002fe3 	str	w3, [sp, #44]
    44005718:	b94033e1 	ldr	w1, [sp, #48]
    4400571c:	f9401fe0 	ldr	x0, [sp, #56]
    44005720:	9400064d 	bl	44007054 <fdt_first_property_offset>
    44005724:	b9008fe0 	str	w0, [sp, #140]
    44005728:	14000061 	b	440058ac <overlay_update_local_node_references+0x1b0>
    4400572c:	910133e1 	add	x1, sp, #0x4c
    44005730:	910143e0 	add	x0, sp, #0x50
    44005734:	aa0103e3 	mov	x3, x1
    44005738:	aa0003e2 	mov	x2, x0
    4400573c:	b9408fe1 	ldr	w1, [sp, #140]
    44005740:	f9401fe0 	ldr	x0, [sp, #56]
    44005744:	94000738 	bl	44007424 <fdt_getprop_by_offset>
    44005748:	f90037e0 	str	x0, [sp, #104]
    4400574c:	f94037e0 	ldr	x0, [sp, #104]
    44005750:	f100001f 	cmp	x0, #0x0
    44005754:	54000061 	b.ne	44005760 <overlay_update_local_node_references+0x64>  // b.any
    44005758:	b9404fe0 	ldr	w0, [sp, #76]
    4400575c:	14000083 	b	44005968 <overlay_update_local_node_references+0x26c>
    44005760:	b9404fe0 	ldr	w0, [sp, #76]
    44005764:	93407c00 	sxtw	x0, w0
    44005768:	92400400 	and	x0, x0, #0x3
    4400576c:	f100001f 	cmp	x0, #0x0
    44005770:	54000060 	b.eq	4400577c <overlay_update_local_node_references+0x80>  // b.none
    44005774:	128001e0 	mov	w0, #0xfffffff0            	// #-16
    44005778:	1400007c 	b	44005968 <overlay_update_local_node_references+0x26c>
    4400577c:	f9402be0 	ldr	x0, [sp, #80]
    44005780:	910123e1 	add	x1, sp, #0x48
    44005784:	aa0103e3 	mov	x3, x1
    44005788:	aa0003e2 	mov	x2, x0
    4400578c:	b94037e1 	ldr	w1, [sp, #52]
    44005790:	f9401fe0 	ldr	x0, [sp, #56]
    44005794:	94000757 	bl	440074f0 <fdt_getprop>
    44005798:	f90033e0 	str	x0, [sp, #96]
    4400579c:	f94033e0 	ldr	x0, [sp, #96]
    440057a0:	f100001f 	cmp	x0, #0x0
    440057a4:	54000101 	b.ne	440057c4 <overlay_update_local_node_references+0xc8>  // b.any
    440057a8:	b9404be0 	ldr	w0, [sp, #72]
    440057ac:	3100041f 	cmn	w0, #0x1
    440057b0:	54000061 	b.ne	440057bc <overlay_update_local_node_references+0xc0>  // b.any
    440057b4:	128001e0 	mov	w0, #0xfffffff0            	// #-16
    440057b8:	1400006c 	b	44005968 <overlay_update_local_node_references+0x26c>
    440057bc:	b9404be0 	ldr	w0, [sp, #72]
    440057c0:	1400006a 	b	44005968 <overlay_update_local_node_references+0x26c>
    440057c4:	b90087ff 	str	wzr, [sp, #132]
    440057c8:	1400002f 	b	44005884 <overlay_update_local_node_references+0x188>
    440057cc:	b98087e0 	ldrsw	x0, [sp, #132]
    440057d0:	d37ef400 	lsl	x0, x0, #2
    440057d4:	f94037e1 	ldr	x1, [sp, #104]
    440057d8:	8b000020 	add	x0, x1, x0
    440057dc:	b9400000 	ldr	w0, [x0]
    440057e0:	97fffea4 	bl	44005270 <fdt32_to_cpu>
    440057e4:	b9005fe0 	str	w0, [sp, #92]
    440057e8:	b9405fe0 	ldr	w0, [sp, #92]
    440057ec:	f94033e1 	ldr	x1, [sp, #96]
    440057f0:	8b000020 	add	x0, x1, x0
    440057f4:	b9400000 	ldr	w0, [x0]
    440057f8:	b90047e0 	str	w0, [sp, #68]
    440057fc:	b94047e0 	ldr	w0, [sp, #68]
    44005800:	97fffe9c 	bl	44005270 <fdt32_to_cpu>
    44005804:	2a0003e1 	mov	w1, w0
    44005808:	b9402fe0 	ldr	w0, [sp, #44]
    4400580c:	0b000020 	add	w0, w1, w0
    44005810:	97fffead 	bl	440052c4 <cpu_to_fdt32>
    44005814:	b90047e0 	str	w0, [sp, #68]
    44005818:	f9402bf3 	ldr	x19, [sp, #80]
    4400581c:	f9402be0 	ldr	x0, [sp, #80]
    44005820:	97fff4c9 	bl	44002b44 <strlen>
    44005824:	2a0003e1 	mov	w1, w0
    44005828:	910113e0 	add	x0, sp, #0x44
    4400582c:	52800086 	mov	w6, #0x4                   	// #4
    44005830:	aa0003e5 	mov	x5, x0
    44005834:	b9405fe4 	ldr	w4, [sp, #92]
    44005838:	2a0103e3 	mov	w3, w1
    4400583c:	aa1303e2 	mov	x2, x19
    44005840:	b94037e1 	ldr	w1, [sp, #52]
    44005844:	f9401fe0 	ldr	x0, [sp, #56]
    44005848:	940013e9 	bl	4400a7ec <fdt_setprop_inplace_namelen_partial>
    4400584c:	b90073e0 	str	w0, [sp, #112]
    44005850:	b94073e0 	ldr	w0, [sp, #112]
    44005854:	31000c1f 	cmn	w0, #0x3
    44005858:	54000061 	b.ne	44005864 <overlay_update_local_node_references+0x168>  // b.any
    4400585c:	128001e0 	mov	w0, #0xfffffff0            	// #-16
    44005860:	14000042 	b	44005968 <overlay_update_local_node_references+0x26c>
    44005864:	b94073e0 	ldr	w0, [sp, #112]
    44005868:	7100001f 	cmp	w0, #0x0
    4400586c:	54000060 	b.eq	44005878 <overlay_update_local_node_references+0x17c>  // b.none
    44005870:	b94073e0 	ldr	w0, [sp, #112]
    44005874:	1400003d 	b	44005968 <overlay_update_local_node_references+0x26c>
    44005878:	b94087e0 	ldr	w0, [sp, #132]
    4400587c:	11000400 	add	w0, w0, #0x1
    44005880:	b90087e0 	str	w0, [sp, #132]
    44005884:	b98087e1 	ldrsw	x1, [sp, #132]
    44005888:	b9404fe0 	ldr	w0, [sp, #76]
    4400588c:	93407c00 	sxtw	x0, w0
    44005890:	d342fc00 	lsr	x0, x0, #2
    44005894:	eb00003f 	cmp	x1, x0
    44005898:	54fff9a3 	b.cc	440057cc <overlay_update_local_node_references+0xd0>  // b.lo, b.ul, b.last
    4400589c:	b9408fe1 	ldr	w1, [sp, #140]
    440058a0:	f9401fe0 	ldr	x0, [sp, #56]
    440058a4:	940005fe 	bl	4400709c <fdt_next_property_offset>
    440058a8:	b9008fe0 	str	w0, [sp, #140]
    440058ac:	b9408fe0 	ldr	w0, [sp, #140]
    440058b0:	7100001f 	cmp	w0, #0x0
    440058b4:	54fff3ca 	b.ge	4400572c <overlay_update_local_node_references+0x30>  // b.tcont
    440058b8:	b94033e1 	ldr	w1, [sp, #48]
    440058bc:	f9401fe0 	ldr	x0, [sp, #56]
    440058c0:	94001625 	bl	4400b154 <fdt_first_subnode>
    440058c4:	b9008be0 	str	w0, [sp, #136]
    440058c8:	14000024 	b	44005958 <overlay_update_local_node_references+0x25c>
    440058cc:	d2800002 	mov	x2, #0x0                   	// #0
    440058d0:	b9408be1 	ldr	w1, [sp, #136]
    440058d4:	f9401fe0 	ldr	x0, [sp, #56]
    440058d8:	940005a0 	bl	44006f58 <fdt_get_name>
    440058dc:	f9003fe0 	str	x0, [sp, #120]
    440058e0:	f9403fe2 	ldr	x2, [sp, #120]
    440058e4:	b94037e1 	ldr	w1, [sp, #52]
    440058e8:	f9401fe0 	ldr	x0, [sp, #56]
    440058ec:	94000517 	bl	44006d48 <fdt_subnode_offset>
    440058f0:	b90077e0 	str	w0, [sp, #116]
    440058f4:	b94077e0 	ldr	w0, [sp, #116]
    440058f8:	3100041f 	cmn	w0, #0x1
    440058fc:	54000061 	b.ne	44005908 <overlay_update_local_node_references+0x20c>  // b.any
    44005900:	128001e0 	mov	w0, #0xfffffff0            	// #-16
    44005904:	14000019 	b	44005968 <overlay_update_local_node_references+0x26c>
    44005908:	b94077e0 	ldr	w0, [sp, #116]
    4400590c:	7100001f 	cmp	w0, #0x0
    44005910:	5400006a 	b.ge	4400591c <overlay_update_local_node_references+0x220>  // b.tcont
    44005914:	b94077e0 	ldr	w0, [sp, #116]
    44005918:	14000014 	b	44005968 <overlay_update_local_node_references+0x26c>
    4400591c:	b9402fe3 	ldr	w3, [sp, #44]
    44005920:	b9408be2 	ldr	w2, [sp, #136]
    44005924:	b94077e1 	ldr	w1, [sp, #116]
    44005928:	f9401fe0 	ldr	x0, [sp, #56]
    4400592c:	97ffff74 	bl	440056fc <overlay_update_local_node_references>
    44005930:	b90073e0 	str	w0, [sp, #112]
    44005934:	b94073e0 	ldr	w0, [sp, #112]
    44005938:	7100001f 	cmp	w0, #0x0
    4400593c:	54000060 	b.eq	44005948 <overlay_update_local_node_references+0x24c>  // b.none
    44005940:	b94073e0 	ldr	w0, [sp, #112]
    44005944:	14000009 	b	44005968 <overlay_update_local_node_references+0x26c>
    44005948:	b9408be1 	ldr	w1, [sp, #136]
    4400594c:	f9401fe0 	ldr	x0, [sp, #56]
    44005950:	94001617 	bl	4400b1ac <fdt_next_subnode>
    44005954:	b9008be0 	str	w0, [sp, #136]
    44005958:	b9408be0 	ldr	w0, [sp, #136]
    4400595c:	7100001f 	cmp	w0, #0x0
    44005960:	54fffb6a 	b.ge	440058cc <overlay_update_local_node_references+0x1d0>  // b.tcont
    44005964:	52800000 	mov	w0, #0x0                   	// #0
    44005968:	f9400bf3 	ldr	x19, [sp, #16]
    4400596c:	a8c97bfd 	ldp	x29, x30, [sp], #144
    44005970:	d65f03c0 	ret

0000000044005974 <overlay_update_local_references>:
    44005974:	a9bd7bfd 	stp	x29, x30, [sp, #-48]!
    44005978:	910003fd 	mov	x29, sp
    4400597c:	f9000fe0 	str	x0, [sp, #24]
    44005980:	b90017e1 	str	w1, [sp, #20]
    44005984:	d0000080 	adrp	x0, 44017000 <krhino_workqueue_create+0x6c>
    44005988:	912d6001 	add	x1, x0, #0xb58
    4400598c:	f9400fe0 	ldr	x0, [sp, #24]
    44005990:	94000566 	bl	44006f28 <fdt_path_offset>
    44005994:	b9002fe0 	str	w0, [sp, #44]
    44005998:	b9402fe0 	ldr	w0, [sp, #44]
    4400599c:	7100001f 	cmp	w0, #0x0
    440059a0:	5400010a 	b.ge	440059c0 <overlay_update_local_references+0x4c>  // b.tcont
    440059a4:	b9402fe0 	ldr	w0, [sp, #44]
    440059a8:	3100041f 	cmn	w0, #0x1
    440059ac:	54000061 	b.ne	440059b8 <overlay_update_local_references+0x44>  // b.any
    440059b0:	52800000 	mov	w0, #0x0                   	// #0
    440059b4:	14000008 	b	440059d4 <overlay_update_local_references+0x60>
    440059b8:	b9402fe0 	ldr	w0, [sp, #44]
    440059bc:	14000006 	b	440059d4 <overlay_update_local_references+0x60>
    440059c0:	b94017e3 	ldr	w3, [sp, #20]
    440059c4:	b9402fe2 	ldr	w2, [sp, #44]
    440059c8:	52800001 	mov	w1, #0x0                   	// #0
    440059cc:	f9400fe0 	ldr	x0, [sp, #24]
    440059d0:	97ffff4b 	bl	440056fc <overlay_update_local_node_references>
    440059d4:	a8c37bfd 	ldp	x29, x30, [sp], #48
    440059d8:	d65f03c0 	ret

00000000440059dc <overlay_fixup_one_phandle>:
    440059dc:	a9ba7bfd 	stp	x29, x30, [sp, #-96]!
    440059e0:	910003fd 	mov	x29, sp
    440059e4:	f9001fe0 	str	x0, [sp, #56]
    440059e8:	f9001be1 	str	x1, [sp, #48]
    440059ec:	b9002fe2 	str	w2, [sp, #44]
    440059f0:	f90013e3 	str	x3, [sp, #32]
    440059f4:	b9002be4 	str	w4, [sp, #40]
    440059f8:	f9000fe5 	str	x5, [sp, #24]
    440059fc:	b90017e6 	str	w6, [sp, #20]
    44005a00:	b90013e7 	str	w7, [sp, #16]
    44005a04:	b9402fe0 	ldr	w0, [sp, #44]
    44005a08:	7100001f 	cmp	w0, #0x0
    44005a0c:	5400006a 	b.ge	44005a18 <overlay_fixup_one_phandle+0x3c>  // b.tcont
    44005a10:	b9402fe0 	ldr	w0, [sp, #44]
    44005a14:	1400003d 	b	44005b08 <overlay_fixup_one_phandle+0x12c>
    44005a18:	910113e0 	add	x0, sp, #0x44
    44005a1c:	aa0003e3 	mov	x3, x0
    44005a20:	f94033e2 	ldr	x2, [sp, #96]
    44005a24:	b9402fe1 	ldr	w1, [sp, #44]
    44005a28:	f9401fe0 	ldr	x0, [sp, #56]
    44005a2c:	940006b1 	bl	440074f0 <fdt_getprop>
    44005a30:	f9002fe0 	str	x0, [sp, #88]
    44005a34:	f9402fe0 	ldr	x0, [sp, #88]
    44005a38:	f100001f 	cmp	x0, #0x0
    44005a3c:	54000061 	b.ne	44005a48 <overlay_fixup_one_phandle+0x6c>  // b.any
    44005a40:	b94047e0 	ldr	w0, [sp, #68]
    44005a44:	14000031 	b	44005b08 <overlay_fixup_one_phandle+0x12c>
    44005a48:	f9402fe1 	ldr	x1, [sp, #88]
    44005a4c:	f9401fe0 	ldr	x0, [sp, #56]
    44005a50:	94000536 	bl	44006f28 <fdt_path_offset>
    44005a54:	b90057e0 	str	w0, [sp, #84]
    44005a58:	b94057e0 	ldr	w0, [sp, #84]
    44005a5c:	7100001f 	cmp	w0, #0x0
    44005a60:	5400006a 	b.ge	44005a6c <overlay_fixup_one_phandle+0x90>  // b.tcont
    44005a64:	b94057e0 	ldr	w0, [sp, #84]
    44005a68:	14000028 	b	44005b08 <overlay_fixup_one_phandle+0x12c>
    44005a6c:	b94057e1 	ldr	w1, [sp, #84]
    44005a70:	f9401fe0 	ldr	x0, [sp, #56]
    44005a74:	940006af 	bl	44007530 <fdt_get_phandle>
    44005a78:	b90053e0 	str	w0, [sp, #80]
    44005a7c:	b94053e0 	ldr	w0, [sp, #80]
    44005a80:	7100001f 	cmp	w0, #0x0
    44005a84:	54000061 	b.ne	44005a90 <overlay_fixup_one_phandle+0xb4>  // b.any
    44005a88:	12800000 	mov	w0, #0xffffffff            	// #-1
    44005a8c:	1400001f 	b	44005b08 <overlay_fixup_one_phandle+0x12c>
    44005a90:	b9402be0 	ldr	w0, [sp, #40]
    44005a94:	2a0003e2 	mov	w2, w0
    44005a98:	f94013e1 	ldr	x1, [sp, #32]
    44005a9c:	f9401be0 	ldr	x0, [sp, #48]
    44005aa0:	940004b8 	bl	44006d80 <fdt_path_offset_namelen>
    44005aa4:	b9004fe0 	str	w0, [sp, #76]
    44005aa8:	b9404fe0 	ldr	w0, [sp, #76]
    44005aac:	3100041f 	cmn	w0, #0x1
    44005ab0:	54000061 	b.ne	44005abc <overlay_fixup_one_phandle+0xe0>  // b.any
    44005ab4:	128001e0 	mov	w0, #0xfffffff0            	// #-16
    44005ab8:	14000014 	b	44005b08 <overlay_fixup_one_phandle+0x12c>
    44005abc:	b9404fe0 	ldr	w0, [sp, #76]
    44005ac0:	7100001f 	cmp	w0, #0x0
    44005ac4:	5400006a 	b.ge	44005ad0 <overlay_fixup_one_phandle+0xf4>  // b.tcont
    44005ac8:	b9404fe0 	ldr	w0, [sp, #76]
    44005acc:	1400000f 	b	44005b08 <overlay_fixup_one_phandle+0x12c>
    44005ad0:	b94053e0 	ldr	w0, [sp, #80]
    44005ad4:	97fffdfc 	bl	440052c4 <cpu_to_fdt32>
    44005ad8:	b9004be0 	str	w0, [sp, #72]
    44005adc:	b94017e0 	ldr	w0, [sp, #20]
    44005ae0:	b94013e1 	ldr	w1, [sp, #16]
    44005ae4:	910123e2 	add	x2, sp, #0x48
    44005ae8:	52800086 	mov	w6, #0x4                   	// #4
    44005aec:	aa0203e5 	mov	x5, x2
    44005af0:	2a0103e4 	mov	w4, w1
    44005af4:	2a0003e3 	mov	w3, w0
    44005af8:	f9400fe2 	ldr	x2, [sp, #24]
    44005afc:	b9404fe1 	ldr	w1, [sp, #76]
    44005b00:	f9401be0 	ldr	x0, [sp, #48]
    44005b04:	9400133a 	bl	4400a7ec <fdt_setprop_inplace_namelen_partial>
    44005b08:	a8c67bfd 	ldp	x29, x30, [sp], #96
    44005b0c:	d65f03c0 	ret

0000000044005b10 <overlay_fixup_phandle>:
    44005b10:	d102c3ff 	sub	sp, sp, #0xb0
    44005b14:	a9017bfd 	stp	x29, x30, [sp, #16]
    44005b18:	910043fd 	add	x29, sp, #0x10
    44005b1c:	f9001fe0 	str	x0, [sp, #56]
    44005b20:	f9001be1 	str	x1, [sp, #48]
    44005b24:	b9002fe2 	str	w2, [sp, #44]
    44005b28:	b9002be3 	str	w3, [sp, #40]
    44005b2c:	910153e1 	add	x1, sp, #0x54
    44005b30:	910163e0 	add	x0, sp, #0x58
    44005b34:	aa0103e3 	mov	x3, x1
    44005b38:	aa0003e2 	mov	x2, x0
    44005b3c:	b9402be1 	ldr	w1, [sp, #40]
    44005b40:	f9401be0 	ldr	x0, [sp, #48]
    44005b44:	94000638 	bl	44007424 <fdt_getprop_by_offset>
    44005b48:	f90057e0 	str	x0, [sp, #168]
    44005b4c:	f94057e0 	ldr	x0, [sp, #168]
    44005b50:	f100001f 	cmp	x0, #0x0
    44005b54:	54000101 	b.ne	44005b74 <overlay_fixup_phandle+0x64>  // b.any
    44005b58:	b94057e0 	ldr	w0, [sp, #84]
    44005b5c:	3100041f 	cmn	w0, #0x1
    44005b60:	54000061 	b.ne	44005b6c <overlay_fixup_phandle+0x5c>  // b.any
    44005b64:	12800180 	mov	w0, #0xfffffff3            	// #-13
    44005b68:	14000083 	b	44005d74 <overlay_fixup_phandle+0x264>
    44005b6c:	b94057e0 	ldr	w0, [sp, #84]
    44005b70:	14000081 	b	44005d74 <overlay_fixup_phandle+0x264>
    44005b74:	f94057e0 	ldr	x0, [sp, #168]
    44005b78:	f90053e0 	str	x0, [sp, #160]
    44005b7c:	b94057e0 	ldr	w0, [sp, #84]
    44005b80:	93407c00 	sxtw	x0, w0
    44005b84:	aa0003e2 	mov	x2, x0
    44005b88:	52800001 	mov	w1, #0x0                   	// #0
    44005b8c:	f94057e0 	ldr	x0, [sp, #168]
    44005b90:	97fff36d 	bl	44002944 <memchr>
    44005b94:	f9004fe0 	str	x0, [sp, #152]
    44005b98:	f9404fe0 	ldr	x0, [sp, #152]
    44005b9c:	f100001f 	cmp	x0, #0x0
    44005ba0:	54000061 	b.ne	44005bac <overlay_fixup_phandle+0x9c>  // b.any
    44005ba4:	128001e0 	mov	w0, #0xfffffff0            	// #-16
    44005ba8:	14000073 	b	44005d74 <overlay_fixup_phandle+0x264>
    44005bac:	f9404fe1 	ldr	x1, [sp, #152]
    44005bb0:	f94053e0 	ldr	x0, [sp, #160]
    44005bb4:	cb000020 	sub	x0, x1, x0
    44005bb8:	b90097e0 	str	w0, [sp, #148]
    44005bbc:	b94057e0 	ldr	w0, [sp, #84]
    44005bc0:	2a0003e1 	mov	w1, w0
    44005bc4:	b94097e0 	ldr	w0, [sp, #148]
    44005bc8:	4b000020 	sub	w0, w1, w0
    44005bcc:	51000400 	sub	w0, w0, #0x1
    44005bd0:	b90057e0 	str	w0, [sp, #84]
    44005bd4:	b94097e0 	ldr	w0, [sp, #148]
    44005bd8:	11000400 	add	w0, w0, #0x1
    44005bdc:	2a0003e0 	mov	w0, w0
    44005be0:	f94057e1 	ldr	x1, [sp, #168]
    44005be4:	8b000020 	add	x0, x1, x0
    44005be8:	f90057e0 	str	x0, [sp, #168]
    44005bec:	f94053e0 	ldr	x0, [sp, #160]
    44005bf0:	f90047e0 	str	x0, [sp, #136]
    44005bf4:	b94097e0 	ldr	w0, [sp, #148]
    44005bf8:	aa0003e2 	mov	x2, x0
    44005bfc:	52800741 	mov	w1, #0x3a                  	// #58
    44005c00:	f94053e0 	ldr	x0, [sp, #160]
    44005c04:	97fff350 	bl	44002944 <memchr>
    44005c08:	f90043e0 	str	x0, [sp, #128]
    44005c0c:	f94043e0 	ldr	x0, [sp, #128]
    44005c10:	f100001f 	cmp	x0, #0x0
    44005c14:	540000a0 	b.eq	44005c28 <overlay_fixup_phandle+0x118>  // b.none
    44005c18:	f94043e0 	ldr	x0, [sp, #128]
    44005c1c:	39400000 	ldrb	w0, [x0]
    44005c20:	7100e81f 	cmp	w0, #0x3a
    44005c24:	54000060 	b.eq	44005c30 <overlay_fixup_phandle+0x120>  // b.none
    44005c28:	128001e0 	mov	w0, #0xfffffff0            	// #-16
    44005c2c:	14000052 	b	44005d74 <overlay_fixup_phandle+0x264>
    44005c30:	f94043e1 	ldr	x1, [sp, #128]
    44005c34:	f94047e0 	ldr	x0, [sp, #136]
    44005c38:	cb000020 	sub	x0, x1, x0
    44005c3c:	b9007fe0 	str	w0, [sp, #124]
    44005c40:	b94097e0 	ldr	w0, [sp, #148]
    44005c44:	51000400 	sub	w0, w0, #0x1
    44005c48:	b9407fe1 	ldr	w1, [sp, #124]
    44005c4c:	6b00003f 	cmp	w1, w0
    44005c50:	54000061 	b.ne	44005c5c <overlay_fixup_phandle+0x14c>  // b.any
    44005c54:	128001e0 	mov	w0, #0xfffffff0            	// #-16
    44005c58:	14000047 	b	44005d74 <overlay_fixup_phandle+0x264>
    44005c5c:	b94097e1 	ldr	w1, [sp, #148]
    44005c60:	b9407fe0 	ldr	w0, [sp, #124]
    44005c64:	4b000020 	sub	w0, w1, w0
    44005c68:	51000400 	sub	w0, w0, #0x1
    44005c6c:	b90097e0 	str	w0, [sp, #148]
    44005c70:	f94043e0 	ldr	x0, [sp, #128]
    44005c74:	91000400 	add	x0, x0, #0x1
    44005c78:	f9003be0 	str	x0, [sp, #112]
    44005c7c:	b94097e0 	ldr	w0, [sp, #148]
    44005c80:	aa0003e2 	mov	x2, x0
    44005c84:	52800741 	mov	w1, #0x3a                  	// #58
    44005c88:	f9403be0 	ldr	x0, [sp, #112]
    44005c8c:	97fff32e 	bl	44002944 <memchr>
    44005c90:	f90043e0 	str	x0, [sp, #128]
    44005c94:	f94043e0 	ldr	x0, [sp, #128]
    44005c98:	f100001f 	cmp	x0, #0x0
    44005c9c:	540000a0 	b.eq	44005cb0 <overlay_fixup_phandle+0x1a0>  // b.none
    44005ca0:	f94043e0 	ldr	x0, [sp, #128]
    44005ca4:	39400000 	ldrb	w0, [x0]
    44005ca8:	7100e81f 	cmp	w0, #0x3a
    44005cac:	54000060 	b.eq	44005cb8 <overlay_fixup_phandle+0x1a8>  // b.none
    44005cb0:	128001e0 	mov	w0, #0xfffffff0            	// #-16
    44005cb4:	14000030 	b	44005d74 <overlay_fixup_phandle+0x264>
    44005cb8:	f94043e1 	ldr	x1, [sp, #128]
    44005cbc:	f9403be0 	ldr	x0, [sp, #112]
    44005cc0:	cb000020 	sub	x0, x1, x0
    44005cc4:	b9006fe0 	str	w0, [sp, #108]
    44005cc8:	b9406fe0 	ldr	w0, [sp, #108]
    44005ccc:	7100001f 	cmp	w0, #0x0
    44005cd0:	54000061 	b.ne	44005cdc <overlay_fixup_phandle+0x1cc>  // b.any
    44005cd4:	128001e0 	mov	w0, #0xfffffff0            	// #-16
    44005cd8:	14000027 	b	44005d74 <overlay_fixup_phandle+0x264>
    44005cdc:	f94043e0 	ldr	x0, [sp, #128]
    44005ce0:	91000400 	add	x0, x0, #0x1
    44005ce4:	910123e1 	add	x1, sp, #0x48
    44005ce8:	52800142 	mov	w2, #0xa                   	// #10
    44005cec:	97fff411 	bl	44002d30 <strtoul>
    44005cf0:	b9006be0 	str	w0, [sp, #104]
    44005cf4:	f94027e0 	ldr	x0, [sp, #72]
    44005cf8:	39400000 	ldrb	w0, [x0]
    44005cfc:	7100001f 	cmp	w0, #0x0
    44005d00:	540000c1 	b.ne	44005d18 <overlay_fixup_phandle+0x208>  // b.any
    44005d04:	f94043e0 	ldr	x0, [sp, #128]
    44005d08:	91000401 	add	x1, x0, #0x1
    44005d0c:	f94027e0 	ldr	x0, [sp, #72]
    44005d10:	eb00003f 	cmp	x1, x0
    44005d14:	54000063 	b.cc	44005d20 <overlay_fixup_phandle+0x210>  // b.lo, b.ul, b.last
    44005d18:	128001e0 	mov	w0, #0xfffffff0            	// #-16
    44005d1c:	14000016 	b	44005d74 <overlay_fixup_phandle+0x264>
    44005d20:	f9402fe0 	ldr	x0, [sp, #88]
    44005d24:	f90003e0 	str	x0, [sp]
    44005d28:	b9406be7 	ldr	w7, [sp, #104]
    44005d2c:	b9406fe6 	ldr	w6, [sp, #108]
    44005d30:	f9403be5 	ldr	x5, [sp, #112]
    44005d34:	b9407fe4 	ldr	w4, [sp, #124]
    44005d38:	f94047e3 	ldr	x3, [sp, #136]
    44005d3c:	b9402fe2 	ldr	w2, [sp, #44]
    44005d40:	f9401be1 	ldr	x1, [sp, #48]
    44005d44:	f9401fe0 	ldr	x0, [sp, #56]
    44005d48:	97ffff25 	bl	440059dc <overlay_fixup_one_phandle>
    44005d4c:	b90067e0 	str	w0, [sp, #100]
    44005d50:	b94067e0 	ldr	w0, [sp, #100]
    44005d54:	7100001f 	cmp	w0, #0x0
    44005d58:	54000060 	b.eq	44005d64 <overlay_fixup_phandle+0x254>  // b.none
    44005d5c:	b94067e0 	ldr	w0, [sp, #100]
    44005d60:	14000005 	b	44005d74 <overlay_fixup_phandle+0x264>
